
driver:     file format elf32-i386


Disassembly of section .init:

00000738 <_init>:
 738:	53                   	push   %ebx
 739:	83 ec 08             	sub    $0x8,%esp
 73c:	e8 2f 09 00 00       	call   1070 <__x86.get_pc_thunk.bx>
 741:	81 c3 37 58 00 00    	add    $0x5837,%ebx
 747:	8b 83 78 00 00 00    	mov    0x78(%ebx),%eax
 74d:	85 c0                	test   %eax,%eax
 74f:	74 05                	je     756 <_init+0x1e>
 751:	e8 a2 01 00 00       	call   8f8 <__gmon_start__@plt>
 756:	83 c4 08             	add    $0x8,%esp
 759:	5b                   	pop    %ebx
 75a:	c3                   	ret    

Disassembly of section .plt:

00000760 <.plt>:
 760:	ff b3 04 00 00 00    	pushl  0x4(%ebx)
 766:	ff a3 08 00 00 00    	jmp    *0x8(%ebx)
 76c:	00 00                	add    %al,(%eax)
	...

00000770 <strcmp@plt>:
 770:	ff a3 0c 00 00 00    	jmp    *0xc(%ebx)
 776:	68 00 00 00 00       	push   $0x0
 77b:	e9 e0 ff ff ff       	jmp    760 <.plt>

00000780 <times@plt>:
 780:	ff a3 10 00 00 00    	jmp    *0x10(%ebx)
 786:	68 08 00 00 00       	push   $0x8
 78b:	e9 d0 ff ff ff       	jmp    760 <.plt>

00000790 <free@plt>:
 790:	ff a3 14 00 00 00    	jmp    *0x14(%ebx)
 796:	68 10 00 00 00       	push   $0x10
 79b:	e9 c0 ff ff ff       	jmp    760 <.plt>

000007a0 <strdup@plt>:
 7a0:	ff a3 18 00 00 00    	jmp    *0x18(%ebx)
 7a6:	68 18 00 00 00       	push   $0x18
 7ab:	e9 b0 ff ff ff       	jmp    760 <.plt>

000007b0 <fgets@plt>:
 7b0:	ff a3 1c 00 00 00    	jmp    *0x1c(%ebx)
 7b6:	68 20 00 00 00       	push   $0x20
 7bb:	e9 a0 ff ff ff       	jmp    760 <.plt>

000007c0 <fclose@plt>:
 7c0:	ff a3 20 00 00 00    	jmp    *0x20(%ebx)
 7c6:	68 28 00 00 00       	push   $0x28
 7cb:	e9 90 ff ff ff       	jmp    760 <.plt>

000007d0 <sleep@plt>:
 7d0:	ff a3 24 00 00 00    	jmp    *0x24(%ebx)
 7d6:	68 30 00 00 00       	push   $0x30
 7db:	e9 80 ff ff ff       	jmp    760 <.plt>

000007e0 <pow@plt>:
 7e0:	ff a3 28 00 00 00    	jmp    *0x28(%ebx)
 7e6:	68 38 00 00 00       	push   $0x38
 7eb:	e9 70 ff ff ff       	jmp    760 <.plt>

000007f0 <__stack_chk_fail@plt>:
 7f0:	ff a3 2c 00 00 00    	jmp    *0x2c(%ebx)
 7f6:	68 40 00 00 00       	push   $0x40
 7fb:	e9 60 ff ff ff       	jmp    760 <.plt>

00000800 <fwrite@plt>:
 800:	ff a3 30 00 00 00    	jmp    *0x30(%ebx)
 806:	68 48 00 00 00       	push   $0x48
 80b:	e9 50 ff ff ff       	jmp    760 <.plt>

00000810 <malloc@plt>:
 810:	ff a3 34 00 00 00    	jmp    *0x34(%ebx)
 816:	68 50 00 00 00       	push   $0x50
 81b:	e9 40 ff ff ff       	jmp    760 <.plt>

00000820 <puts@plt>:
 820:	ff a3 38 00 00 00    	jmp    *0x38(%ebx)
 826:	68 58 00 00 00       	push   $0x58
 82b:	e9 30 ff ff ff       	jmp    760 <.plt>

00000830 <strsep@plt>:
 830:	ff a3 3c 00 00 00    	jmp    *0x3c(%ebx)
 836:	68 60 00 00 00       	push   $0x60
 83b:	e9 20 ff ff ff       	jmp    760 <.plt>

00000840 <exit@plt>:
 840:	ff a3 40 00 00 00    	jmp    *0x40(%ebx)
 846:	68 68 00 00 00       	push   $0x68
 84b:	e9 10 ff ff ff       	jmp    760 <.plt>

00000850 <srand@plt>:
 850:	ff a3 44 00 00 00    	jmp    *0x44(%ebx)
 856:	68 70 00 00 00       	push   $0x70
 85b:	e9 00 ff ff ff       	jmp    760 <.plt>

00000860 <__libc_start_main@plt>:
 860:	ff a3 48 00 00 00    	jmp    *0x48(%ebx)
 866:	68 78 00 00 00       	push   $0x78
 86b:	e9 f0 fe ff ff       	jmp    760 <.plt>

00000870 <getopt@plt>:
 870:	ff a3 4c 00 00 00    	jmp    *0x4c(%ebx)
 876:	68 80 00 00 00       	push   $0x80
 87b:	e9 e0 fe ff ff       	jmp    760 <.plt>

00000880 <fopen@plt>:
 880:	ff a3 50 00 00 00    	jmp    *0x50(%ebx)
 886:	68 88 00 00 00       	push   $0x88
 88b:	e9 d0 fe ff ff       	jmp    760 <.plt>

00000890 <putchar@plt>:
 890:	ff a3 54 00 00 00    	jmp    *0x54(%ebx)
 896:	68 90 00 00 00       	push   $0x90
 89b:	e9 c0 fe ff ff       	jmp    760 <.plt>

000008a0 <rand@plt>:
 8a0:	ff a3 58 00 00 00    	jmp    *0x58(%ebx)
 8a6:	68 98 00 00 00       	push   $0x98
 8ab:	e9 b0 fe ff ff       	jmp    760 <.plt>

000008b0 <__printf_chk@plt>:
 8b0:	ff a3 5c 00 00 00    	jmp    *0x5c(%ebx)
 8b6:	68 a0 00 00 00       	push   $0xa0
 8bb:	e9 a0 fe ff ff       	jmp    760 <.plt>

000008c0 <__fprintf_chk@plt>:
 8c0:	ff a3 60 00 00 00    	jmp    *0x60(%ebx)
 8c6:	68 a8 00 00 00       	push   $0xa8
 8cb:	e9 90 fe ff ff       	jmp    760 <.plt>

000008d0 <strtol@plt>:
 8d0:	ff a3 64 00 00 00    	jmp    *0x64(%ebx)
 8d6:	68 b0 00 00 00       	push   $0xb0
 8db:	e9 80 fe ff ff       	jmp    760 <.plt>

000008e0 <calloc@plt>:
 8e0:	ff a3 68 00 00 00    	jmp    *0x68(%ebx)
 8e6:	68 b8 00 00 00       	push   $0xb8
 8eb:	e9 70 fe ff ff       	jmp    760 <.plt>

Disassembly of section .plt.got:

000008f0 <__cxa_finalize@plt>:
 8f0:	ff a3 74 00 00 00    	jmp    *0x74(%ebx)
 8f6:	66 90                	xchg   %ax,%ax

000008f8 <__gmon_start__@plt>:
 8f8:	ff a3 78 00 00 00    	jmp    *0x78(%ebx)
 8fe:	66 90                	xchg   %ax,%ax

Disassembly of section .text:

00000900 <main>:
     900:	8d 4c 24 04          	lea    0x4(%esp),%ecx
     904:	83 e4 f0             	and    $0xfffffff0,%esp
     907:	ff 71 fc             	pushl  -0x4(%ecx)
     90a:	55                   	push   %ebp
     90b:	89 e5                	mov    %esp,%ebp
     90d:	57                   	push   %edi
     90e:	56                   	push   %esi
     90f:	53                   	push   %ebx
     910:	51                   	push   %ecx
     911:	e8 5a 07 00 00       	call   1070 <__x86.get_pc_thunk.bx>
     916:	81 c3 62 56 00 00    	add    $0x5662,%ebx
     91c:	81 ec 48 01 00 00    	sub    $0x148,%esp
     922:	8b 01                	mov    (%ecx),%eax
     924:	89 85 c8 fe ff ff    	mov    %eax,-0x138(%ebp)
     92a:	8b 41 04             	mov    0x4(%ecx),%eax
     92d:	89 85 cc fe ff ff    	mov    %eax,-0x134(%ebp)
     933:	65 a1 14 00 00 00    	mov    %gs:0x14,%eax
     939:	89 45 e4             	mov    %eax,-0x1c(%ebp)
     93c:	31 c0                	xor    %eax,%eax
     93e:	e8 6d 1a 00 00       	call   23b0 <register_rotate_functions>
     943:	e8 a8 1a 00 00       	call   23f0 <register_smooth_functions>
     948:	8d 83 a5 d1 ff ff    	lea    -0x2e5b(%ebx),%eax
     94e:	c7 85 b0 fe ff ff 00 	movl   $0x0,-0x150(%ebp)
     955:	00 00 00 
     958:	c7 85 b8 fe ff ff c1 	movl   $0x6c1,-0x148(%ebp)
     95f:	06 00 00 
     962:	c7 85 bc fe ff ff 00 	movl   $0x0,-0x144(%ebp)
     969:	00 00 00 
     96c:	c7 85 b4 fe ff ff 00 	movl   $0x0,-0x14c(%ebp)
     973:	00 00 00 
     976:	89 85 c4 fe ff ff    	mov    %eax,-0x13c(%ebp)
     97c:	8b 83 84 00 00 00    	mov    0x84(%ebx),%eax
     982:	c7 85 c0 fe ff ff 00 	movl   $0x0,-0x140(%ebp)
     989:	00 00 00 
     98c:	89 85 ac fe ff ff    	mov    %eax,-0x154(%ebp)
     992:	89 85 a8 fe ff ff    	mov    %eax,-0x158(%ebp)
     998:	90                   	nop
     999:	8d b4 26 00 00 00 00 	lea    0x0(%esi,%eiz,1),%esi
     9a0:	83 ec 04             	sub    $0x4,%esp
     9a3:	ff b5 c4 fe ff ff    	pushl  -0x13c(%ebp)
     9a9:	ff b5 cc fe ff ff    	pushl  -0x134(%ebp)
     9af:	ff b5 c8 fe ff ff    	pushl  -0x138(%ebp)
     9b5:	e8 b6 fe ff ff       	call   870 <getopt@plt>
     9ba:	83 c4 10             	add    $0x10,%esp
     9bd:	3c ff                	cmp    $0xff,%al
     9bf:	0f 84 8b 01 00 00    	je     b50 <.L145+0x18>
     9c5:	83 e8 64             	sub    $0x64,%eax
     9c8:	3c 10                	cmp    $0x10,%al
     9ca:	0f 87 06 06 00 00    	ja     fd6 <.L138>
     9d0:	0f b6 c0             	movzbl %al,%eax
     9d3:	8b 94 83 88 d2 ff ff 	mov    -0x2d78(%ebx,%eax,4),%edx
     9da:	01 da                	add    %ebx,%edx
     9dc:	ff e2                	jmp    *%edx
     9de:	66 90                	xchg   %ax,%ax

000009e0 <.L183>:
     9e0:	c7 85 c0 fe ff ff 01 	movl   $0x1,-0x140(%ebp)
     9e7:	00 00 00 
     9ea:	eb b4                	jmp    9a0 <main+0xa0>
     9ec:	8d 74 26 00          	lea    0x0(%esi,%eiz,1),%esi

000009f0 <.L142>:
     9f0:	c7 85 bc fe ff ff 01 	movl   $0x1,-0x144(%ebp)
     9f7:	00 00 00 
     9fa:	eb a4                	jmp    9a0 <main+0xa0>
     9fc:	8d 74 26 00          	lea    0x0(%esi,%eiz,1),%esi

00000a00 <.L141>:
     a00:	8b 85 a8 fe ff ff    	mov    -0x158(%ebp),%eax
     a06:	83 ec 0c             	sub    $0xc,%esp
     a09:	ff 30                	pushl  (%eax)
     a0b:	e8 90 fd ff ff       	call   7a0 <strdup@plt>
     a10:	83 c4 10             	add    $0x10,%esp
     a13:	89 85 b0 fe ff ff    	mov    %eax,-0x150(%ebp)
     a19:	eb 85                	jmp    9a0 <main+0xa0>
     a1b:	90                   	nop
     a1c:	8d 74 26 00          	lea    0x0(%esi,%eiz,1),%esi

00000a20 <.L139>:
     a20:	8b 85 ac fe ff ff    	mov    -0x154(%ebp),%eax
     a26:	83 ec 0c             	sub    $0xc,%esp
     a29:	ff 30                	pushl  (%eax)
     a2b:	e8 70 fd ff ff       	call   7a0 <strdup@plt>
     a30:	5a                   	pop    %edx
     a31:	89 c7                	mov    %eax,%edi
     a33:	8d 83 83 d1 ff ff    	lea    -0x2e7d(%ebx),%eax
     a39:	59                   	pop    %ecx
     a3a:	50                   	push   %eax
     a3b:	57                   	push   %edi
     a3c:	e8 3f fe ff ff       	call   880 <fopen@plt>
     a41:	83 c4 10             	add    $0x10,%esp
     a44:	85 c0                	test   %eax,%eax
     a46:	89 c6                	mov    %eax,%esi
     a48:	0f 84 98 05 00 00    	je     fe6 <.L138+0x10>
     a4e:	8b 83 0c 02 c2 01    	mov    0x1c2020c(%ebx),%eax
     a54:	85 c0                	test   %eax,%eax
     a56:	7e 4c                	jle    aa4 <.L139+0x84>
     a58:	8d 8b b4 16 c2 01    	lea    0x1c216b4(%ebx),%ecx
     a5e:	8d 83 99 d1 ff ff    	lea    -0x2e67(%ebx),%eax
     a64:	89 b5 d4 fe ff ff    	mov    %esi,-0x12c(%ebp)
     a6a:	31 ff                	xor    %edi,%edi
     a6c:	89 85 d0 fe ff ff    	mov    %eax,-0x130(%ebp)
     a72:	89 ce                	mov    %ecx,%esi
     a74:	8d 74 26 00          	lea    0x0(%esi,%eiz,1),%esi
     a78:	ff 36                	pushl  (%esi)
     a7a:	ff b5 d0 fe ff ff    	pushl  -0x130(%ebp)
     a80:	83 c7 01             	add    $0x1,%edi
     a83:	6a 01                	push   $0x1
     a85:	ff b5 d4 fe ff ff    	pushl  -0x12c(%ebp)
     a8b:	83 c6 34             	add    $0x34,%esi
     a8e:	e8 2d fe ff ff       	call   8c0 <__fprintf_chk@plt>
     a93:	83 c4 10             	add    $0x10,%esp
     a96:	39 bb 0c 02 c2 01    	cmp    %edi,0x1c2020c(%ebx)
     a9c:	7f da                	jg     a78 <.L139+0x58>
     a9e:	8b b5 d4 fe ff ff    	mov    -0x12c(%ebp),%esi
     aa4:	8b 83 08 02 c2 01    	mov    0x1c20208(%ebx),%eax
     aaa:	85 c0                	test   %eax,%eax
     aac:	7e 4e                	jle    afc <.L139+0xdc>
     aae:	8d 8b 54 02 c2 01    	lea    0x1c20254(%ebx),%ecx
     ab4:	8d 83 9f d1 ff ff    	lea    -0x2e61(%ebx),%eax
     aba:	89 b5 d4 fe ff ff    	mov    %esi,-0x12c(%ebp)
     ac0:	31 ff                	xor    %edi,%edi
     ac2:	89 85 d0 fe ff ff    	mov    %eax,-0x130(%ebp)
     ac8:	89 ce                	mov    %ecx,%esi
     aca:	8d b6 00 00 00 00    	lea    0x0(%esi),%esi
     ad0:	ff 36                	pushl  (%esi)
     ad2:	ff b5 d0 fe ff ff    	pushl  -0x130(%ebp)
     ad8:	83 c7 01             	add    $0x1,%edi
     adb:	6a 01                	push   $0x1
     add:	ff b5 d4 fe ff ff    	pushl  -0x12c(%ebp)
     ae3:	83 c6 34             	add    $0x34,%esi
     ae6:	e8 d5 fd ff ff       	call   8c0 <__fprintf_chk@plt>
     aeb:	83 c4 10             	add    $0x10,%esp
     aee:	39 bb 08 02 c2 01    	cmp    %edi,0x1c20208(%ebx)
     af4:	7f da                	jg     ad0 <.L139+0xb0>
     af6:	8b b5 d4 fe ff ff    	mov    -0x12c(%ebp),%esi
     afc:	83 ec 0c             	sub    $0xc,%esp
     aff:	56                   	push   %esi
     b00:	e8 bb fc ff ff       	call   7c0 <fclose@plt>
     b05:	83 c4 10             	add    $0x10,%esp
     b08:	e9 93 fe ff ff       	jmp    9a0 <main+0xa0>
     b0d:	8d 76 00             	lea    0x0(%esi),%esi

00000b10 <.L144>:
     b10:	8b 83 84 00 00 00    	mov    0x84(%ebx),%eax
     b16:	83 ec 04             	sub    $0x4,%esp
     b19:	6a 0a                	push   $0xa
     b1b:	6a 00                	push   $0x0
     b1d:	ff 30                	pushl  (%eax)
     b1f:	e8 ac fd ff ff       	call   8d0 <strtol@plt>
     b24:	83 c4 10             	add    $0x10,%esp
     b27:	89 85 b8 fe ff ff    	mov    %eax,-0x148(%ebp)
     b2d:	e9 6e fe ff ff       	jmp    9a0 <main+0xa0>
     b32:	8d b6 00 00 00 00    	lea    0x0(%esi),%esi

00000b38 <.L145>:
     b38:	c7 85 b4 fe ff ff 01 	movl   $0x1,-0x14c(%ebp)
     b3f:	00 00 00 
     b42:	e9 59 fe ff ff       	jmp    9a0 <main+0xa0>
     b47:	89 f6                	mov    %esi,%esi
     b49:	8d bc 27 00 00 00 00 	lea    0x0(%edi,%eiz,1),%edi
     b50:	8b 85 c0 fe ff ff    	mov    -0x140(%ebp),%eax
     b56:	85 c0                	test   %eax,%eax
     b58:	0f 85 78 03 00 00    	jne    ed6 <.L145+0x39e>
     b5e:	8b 85 b4 fe ff ff    	mov    -0x14c(%ebp),%eax
     b64:	85 c0                	test   %eax,%eax
     b66:	0f 85 a1 00 00 00    	jne    c0d <.L145+0xd5>
     b6c:	8d b3 54 01 00 00    	lea    0x154(%ebx),%esi
     b72:	8b 3e                	mov    (%esi),%edi
     b74:	50                   	push   %eax
     b75:	50                   	push   %eax
     b76:	8d 83 b0 d1 ff ff    	lea    -0x2e50(%ebx),%eax
     b7c:	57                   	push   %edi
     b7d:	50                   	push   %eax
     b7e:	e8 ed fb ff ff       	call   770 <strcmp@plt>
     b83:	83 c4 10             	add    $0x10,%esp
     b86:	85 c0                	test   %eax,%eax
     b88:	0f 84 74 04 00 00    	je     1002 <.L138+0x2c>
     b8e:	8d 83 b6 d1 ff ff    	lea    -0x2e4a(%ebx),%eax
     b94:	51                   	push   %ecx
     b95:	57                   	push   %edi
     b96:	50                   	push   %eax
     b97:	6a 01                	push   $0x1
     b99:	e8 12 fd ff ff       	call   8b0 <__printf_chk@plt>
     b9e:	8d 83 c4 d1 ff ff    	lea    -0x2e3c(%ebx),%eax
     ba4:	83 c4 0c             	add    $0xc,%esp
     ba7:	ff 76 04             	pushl  0x4(%esi)
     baa:	50                   	push   %eax
     bab:	6a 01                	push   $0x1
     bad:	e8 fe fc ff ff       	call   8b0 <__printf_chk@plt>
     bb2:	8d 83 d2 d1 ff ff    	lea    -0x2e2e(%ebx),%eax
     bb8:	83 c4 0c             	add    $0xc,%esp
     bbb:	ff 76 08             	pushl  0x8(%esi)
     bbe:	50                   	push   %eax
     bbf:	6a 01                	push   $0x1
     bc1:	e8 ea fc ff ff       	call   8b0 <__printf_chk@plt>
     bc6:	8b 46 0c             	mov    0xc(%esi),%eax
     bc9:	83 c4 10             	add    $0x10,%esp
     bcc:	80 38 00             	cmpb   $0x0,(%eax)
     bcf:	75 08                	jne    bd9 <.L145+0xa1>
     bd1:	8b 56 10             	mov    0x10(%esi),%edx
     bd4:	80 3a 00             	cmpb   $0x0,(%edx)
     bd7:	74 27                	je     c00 <.L145+0xc8>
     bd9:	52                   	push   %edx
     bda:	50                   	push   %eax
     bdb:	8d 83 df d1 ff ff    	lea    -0x2e21(%ebx),%eax
     be1:	50                   	push   %eax
     be2:	6a 01                	push   $0x1
     be4:	e8 c7 fc ff ff       	call   8b0 <__printf_chk@plt>
     be9:	8d 83 ed d1 ff ff    	lea    -0x2e13(%ebx),%eax
     bef:	83 c4 0c             	add    $0xc,%esp
     bf2:	ff 76 10             	pushl  0x10(%esi)
     bf5:	50                   	push   %eax
     bf6:	6a 01                	push   $0x1
     bf8:	e8 b3 fc ff ff       	call   8b0 <__printf_chk@plt>
     bfd:	83 c4 10             	add    $0x10,%esp
     c00:	83 ec 0c             	sub    $0xc,%esp
     c03:	6a 0a                	push   $0xa
     c05:	e8 86 fc ff ff       	call   890 <putchar@plt>
     c0a:	83 c4 10             	add    $0x10,%esp
     c0d:	83 ec 0c             	sub    $0xc,%esp
     c10:	ff b5 b8 fe ff ff    	pushl  -0x148(%ebp)
     c16:	e8 35 fc ff ff       	call   850 <srand@plt>
     c1b:	8b bd bc fe ff ff    	mov    -0x144(%ebp),%edi
     c21:	83 c4 10             	add    $0x10,%esp
     c24:	85 ff                	test   %edi,%edi
     c26:	0f 84 94 01 00 00    	je     dc0 <.L145+0x288>
     c2c:	8d 83 68 c2 ff ff    	lea    -0x3d98(%ebx),%eax
     c32:	c7 83 0c 02 c2 01 01 	movl   $0x1,0x1c2020c(%ebx)
     c39:	00 00 00 
     c3c:	c7 83 08 02 c2 01 01 	movl   $0x1,0x1c20208(%ebx)
     c43:	00 00 00 
     c46:	66 c7 83 b8 16 c2 01 	movw   $0x1,0x1c216b8(%ebx)
     c4d:	01 00 
     c4f:	66 c7 83 58 02 c2 01 	movw   $0x1,0x1c20258(%ebx)
     c56:	01 00 
     c58:	89 83 88 16 c2 01    	mov    %eax,0x1c21688(%ebx)
     c5e:	8d 83 fa d1 ff ff    	lea    -0x2e06(%ebx),%eax
     c64:	89 83 b4 16 c2 01    	mov    %eax,0x1c216b4(%ebx)
     c6a:	8d 83 28 c4 ff ff    	lea    -0x3bd8(%ebx),%eax
     c70:	89 83 28 02 c2 01    	mov    %eax,0x1c20228(%ebx)
     c76:	8d 83 0c d2 ff ff    	lea    -0x2df4(%ebx),%eax
     c7c:	89 83 54 02 c2 01    	mov    %eax,0x1c20254(%ebx)
     c82:	83 ec 0c             	sub    $0xc,%esp
     c85:	68 00 40 00 00       	push   $0x4000
     c8a:	e8 91 1b 00 00       	call   2820 <set_fcyc_cache_size>
     c8f:	c7 04 24 01 00 00 00 	movl   $0x1,(%esp)
     c96:	e8 65 1b 00 00       	call   2800 <set_fcyc_clear_cache>
     c9b:	c7 04 24 01 00 00 00 	movl   $0x1,(%esp)
     ca2:	e8 e9 1b 00 00       	call   2890 <set_fcyc_compensate>
     ca7:	8b bb 0c 02 c2 01    	mov    0x1c2020c(%ebx),%edi
     cad:	83 c4 10             	add    $0x10,%esp
     cb0:	85 ff                	test   %edi,%edi
     cb2:	7e 3a                	jle    cee <.L145+0x1b6>
     cb4:	8d bb b8 16 c2 01    	lea    0x1c216b8(%ebx),%edi
     cba:	31 f6                	xor    %esi,%esi
     cbc:	eb 10                	jmp    cce <.L145+0x196>
     cbe:	66 90                	xchg   %ax,%ax
     cc0:	83 c6 01             	add    $0x1,%esi
     cc3:	83 c7 34             	add    $0x34,%edi
     cc6:	39 b3 0c 02 c2 01    	cmp    %esi,0x1c2020c(%ebx)
     ccc:	7e 20                	jle    cee <.L145+0x1b6>
     cce:	66 83 3f 00          	cmpw   $0x0,(%edi)
     cd2:	74 ec                	je     cc0 <.L145+0x188>
     cd4:	83 ec 0c             	sub    $0xc,%esp
     cd7:	83 c7 34             	add    $0x34,%edi
     cda:	56                   	push   %esi
     cdb:	83 c6 01             	add    $0x1,%esi
     cde:	e8 fd 0c 00 00       	call   19e0 <test_rotate>
     ce3:	83 c4 10             	add    $0x10,%esp
     ce6:	39 b3 0c 02 c2 01    	cmp    %esi,0x1c2020c(%ebx)
     cec:	7f e0                	jg     cce <.L145+0x196>
     cee:	8b b3 08 02 c2 01    	mov    0x1c20208(%ebx),%esi
     cf4:	85 f6                	test   %esi,%esi
     cf6:	7e 46                	jle    d3e <.L145+0x206>
     cf8:	8d b3 58 02 c2 01    	lea    0x1c20258(%ebx),%esi
     cfe:	8b bd c0 fe ff ff    	mov    -0x140(%ebp),%edi
     d04:	eb 18                	jmp    d1e <.L145+0x1e6>
     d06:	8d 76 00             	lea    0x0(%esi),%esi
     d09:	8d bc 27 00 00 00 00 	lea    0x0(%edi,%eiz,1),%edi
     d10:	83 c7 01             	add    $0x1,%edi
     d13:	83 c6 34             	add    $0x34,%esi
     d16:	39 bb 08 02 c2 01    	cmp    %edi,0x1c20208(%ebx)
     d1c:	7e 20                	jle    d3e <.L145+0x206>
     d1e:	66 83 3e 00          	cmpw   $0x0,(%esi)
     d22:	74 ec                	je     d10 <.L145+0x1d8>
     d24:	83 ec 0c             	sub    $0xc,%esp
     d27:	83 c6 34             	add    $0x34,%esi
     d2a:	57                   	push   %edi
     d2b:	83 c7 01             	add    $0x1,%edi
     d2e:	e8 2d 10 00 00       	call   1d60 <test_smooth>
     d33:	83 c4 10             	add    $0x10,%esp
     d36:	39 bb 08 02 c2 01    	cmp    %edi,0x1c20208(%ebx)
     d3c:	7f e0                	jg     d1e <.L145+0x1e6>
     d3e:	8b 8d bc fe ff ff    	mov    -0x144(%ebp),%ecx
     d44:	85 c9                	test   %ecx,%ecx
     d46:	0f 85 94 01 00 00    	jne    ee0 <.L145+0x3a8>
     d4c:	8d 83 38 d2 ff ff    	lea    -0x2dc8(%ebx),%eax
     d52:	83 ec 0c             	sub    $0xc,%esp
     d55:	50                   	push   %eax
     d56:	e8 c5 fa ff ff       	call   820 <puts@plt>
     d5b:	58                   	pop    %eax
     d5c:	8d 83 55 d2 ff ff    	lea    -0x2dab(%ebx),%eax
     d62:	ff b3 b8 01 00 00    	pushl  0x1b8(%ebx)
     d68:	ff b3 c4 01 00 00    	pushl  0x1c4(%ebx)
     d6e:	ff b3 c0 01 00 00    	pushl  0x1c0(%ebx)
     d74:	50                   	push   %eax
     d75:	6a 01                	push   $0x1
     d77:	e8 34 fb ff ff       	call   8b0 <__printf_chk@plt>
     d7c:	8d 83 6b d2 ff ff    	lea    -0x2d95(%ebx),%eax
     d82:	83 c4 14             	add    $0x14,%esp
     d85:	ff b3 a8 01 00 00    	pushl  0x1a8(%ebx)
     d8b:	ff b3 b4 01 00 00    	pushl  0x1b4(%ebx)
     d91:	ff b3 b0 01 00 00    	pushl  0x1b0(%ebx)
     d97:	50                   	push   %eax
     d98:	6a 01                	push   $0x1
     d9a:	e8 11 fb ff ff       	call   8b0 <__printf_chk@plt>
     d9f:	83 c4 20             	add    $0x20,%esp
     da2:	31 c0                	xor    %eax,%eax
     da4:	8b 4d e4             	mov    -0x1c(%ebp),%ecx
     da7:	65 33 0d 14 00 00 00 	xor    %gs:0x14,%ecx
     dae:	0f 85 7a 02 00 00    	jne    102e <.L138+0x58>
     db4:	8d 65 f0             	lea    -0x10(%ebp),%esp
     db7:	59                   	pop    %ecx
     db8:	5b                   	pop    %ebx
     db9:	5e                   	pop    %esi
     dba:	5f                   	pop    %edi
     dbb:	5d                   	pop    %ebp
     dbc:	8d 61 fc             	lea    -0x4(%ecx),%esp
     dbf:	c3                   	ret    
     dc0:	83 bd b0 fe ff ff 00 	cmpl   $0x0,-0x150(%ebp)
     dc7:	0f 84 43 01 00 00    	je     f10 <.L145+0x3d8>
     dcd:	8d 83 1e d2 ff ff    	lea    -0x2de2(%ebx),%eax
     dd3:	56                   	push   %esi
     dd4:	56                   	push   %esi
     dd5:	8d bd e4 fe ff ff    	lea    -0x11c(%ebp),%edi
     ddb:	50                   	push   %eax
     ddc:	ff b5 b0 fe ff ff    	pushl  -0x150(%ebp)
     de2:	e8 99 fa ff ff       	call   880 <fopen@plt>
     de7:	8d 8b 53 d2 ff ff    	lea    -0x2dad(%ebx),%ecx
     ded:	83 c4 10             	add    $0x10,%esp
     df0:	85 c0                	test   %eax,%eax
     df2:	89 85 d0 fe ff ff    	mov    %eax,-0x130(%ebp)
     df8:	89 8d cc fe ff ff    	mov    %ecx,-0x134(%ebp)
     dfe:	8d 8d e0 fe ff ff    	lea    -0x120(%ebp),%ecx
     e04:	89 8d c8 fe ff ff    	mov    %ecx,-0x138(%ebp)
     e0a:	0f 84 15 02 00 00    	je     1025 <.L138+0x4f>
     e10:	83 ec 04             	sub    $0x4,%esp
     e13:	ff b5 d0 fe ff ff    	pushl  -0x130(%ebp)
     e19:	68 00 01 00 00       	push   $0x100
     e1e:	57                   	push   %edi
     e1f:	e8 8c f9 ff ff       	call   7b0 <fgets@plt>
     e24:	83 c4 10             	add    $0x10,%esp
     e27:	39 f8                	cmp    %edi,%eax
     e29:	0f 85 91 01 00 00    	jne    fc0 <.L145+0x488>
     e2f:	8b b5 c8 fe ff ff    	mov    -0x138(%ebp),%esi
     e35:	83 ec 08             	sub    $0x8,%esp
     e38:	ff b5 cc fe ff ff    	pushl  -0x134(%ebp)
     e3e:	89 bd e0 fe ff ff    	mov    %edi,-0x120(%ebp)
     e44:	56                   	push   %esi
     e45:	e8 e6 f9 ff ff       	call   830 <strsep@plt>
     e4a:	0f b6 10             	movzbl (%eax),%edx
     e4d:	58                   	pop    %eax
     e4e:	8d 83 69 d2 ff ff    	lea    -0x2d97(%ebx),%eax
     e54:	88 95 d4 fe ff ff    	mov    %dl,-0x12c(%ebp)
     e5a:	5a                   	pop    %edx
     e5b:	50                   	push   %eax
     e5c:	56                   	push   %esi
     e5d:	e8 ce f9 ff ff       	call   830 <strsep@plt>
     e62:	0f b6 95 d4 fe ff ff 	movzbl -0x12c(%ebp),%edx
     e69:	83 c4 10             	add    $0x10,%esp
     e6c:	89 c6                	mov    %eax,%esi
     e6e:	89 85 e0 fe ff ff    	mov    %eax,-0x120(%ebp)
     e74:	80 fa 52             	cmp    $0x52,%dl
     e77:	0f 84 f0 00 00 00    	je     f6d <.L145+0x435>
     e7d:	80 fa 53             	cmp    $0x53,%dl
     e80:	75 8e                	jne    e10 <.L145+0x2d8>
     e82:	8b 83 08 02 c2 01    	mov    0x1c20208(%ebx),%eax
     e88:	85 c0                	test   %eax,%eax
     e8a:	7e 84                	jle    e10 <.L145+0x2d8>
     e8c:	6b c0 34             	imul   $0x34,%eax,%eax
     e8f:	8d 93 54 02 c2 01    	lea    0x1c20254(%ebx),%edx
     e95:	89 bd c4 fe ff ff    	mov    %edi,-0x13c(%ebp)
     e9b:	89 d7                	mov    %edx,%edi
     e9d:	01 d0                	add    %edx,%eax
     e9f:	89 85 d4 fe ff ff    	mov    %eax,-0x12c(%ebp)
     ea5:	8d 76 00             	lea    0x0(%esi),%esi
     ea8:	83 ec 08             	sub    $0x8,%esp
     eab:	56                   	push   %esi
     eac:	ff 37                	pushl  (%edi)
     eae:	e8 bd f8 ff ff       	call   770 <strcmp@plt>
     eb3:	83 c4 10             	add    $0x10,%esp
     eb6:	85 c0                	test   %eax,%eax
     eb8:	75 06                	jne    ec0 <.L145+0x388>
     eba:	66 c7 47 04 01 00    	movw   $0x1,0x4(%edi)
     ec0:	83 c7 34             	add    $0x34,%edi
     ec3:	3b bd d4 fe ff ff    	cmp    -0x12c(%ebp),%edi
     ec9:	75 dd                	jne    ea8 <.L145+0x370>
     ecb:	8b bd c4 fe ff ff    	mov    -0x13c(%ebp),%edi
     ed1:	e9 3a ff ff ff       	jmp    e10 <.L145+0x2d8>
     ed6:	83 ec 0c             	sub    $0xc,%esp
     ed9:	6a 00                	push   $0x0
     edb:	e8 60 f9 ff ff       	call   840 <exit@plt>
     ee0:	8d 83 20 d2 ff ff    	lea    -0x2de0(%ebx),%eax
     ee6:	52                   	push   %edx
     ee7:	52                   	push   %edx
     ee8:	ff b3 b4 01 00 00    	pushl  0x1b4(%ebx)
     eee:	ff b3 b0 01 00 00    	pushl  0x1b0(%ebx)
     ef4:	ff b3 c4 01 00 00    	pushl  0x1c4(%ebx)
     efa:	ff b3 c0 01 00 00    	pushl  0x1c0(%ebx)
     f00:	50                   	push   %eax
     f01:	6a 01                	push   $0x1
     f03:	e8 a8 f9 ff ff       	call   8b0 <__printf_chk@plt>
     f08:	83 c4 20             	add    $0x20,%esp
     f0b:	e9 92 fe ff ff       	jmp    da2 <.L145+0x26a>
     f10:	8b 93 0c 02 c2 01    	mov    0x1c2020c(%ebx),%edx
     f16:	85 d2                	test   %edx,%edx
     f18:	7e 1e                	jle    f38 <.L145+0x400>
     f1a:	6b d2 34             	imul   $0x34,%edx,%edx
     f1d:	8d 83 b8 16 c2 01    	lea    0x1c216b8(%ebx),%eax
     f23:	01 c2                	add    %eax,%edx
     f25:	8d 76 00             	lea    0x0(%esi),%esi
     f28:	be 01 00 00 00       	mov    $0x1,%esi
     f2d:	83 c0 34             	add    $0x34,%eax
     f30:	66 89 70 cc          	mov    %si,-0x34(%eax)
     f34:	39 d0                	cmp    %edx,%eax
     f36:	75 f0                	jne    f28 <.L145+0x3f0>
     f38:	8b 93 08 02 c2 01    	mov    0x1c20208(%ebx),%edx
     f3e:	85 d2                	test   %edx,%edx
     f40:	0f 8e 3c fd ff ff    	jle    c82 <.L145+0x14a>
     f46:	6b d2 34             	imul   $0x34,%edx,%edx
     f49:	8d 83 58 02 c2 01    	lea    0x1c20258(%ebx),%eax
     f4f:	01 c2                	add    %eax,%edx
     f51:	8d b4 26 00 00 00 00 	lea    0x0(%esi,%eiz,1),%esi
     f58:	b9 01 00 00 00       	mov    $0x1,%ecx
     f5d:	83 c0 34             	add    $0x34,%eax
     f60:	66 89 48 cc          	mov    %cx,-0x34(%eax)
     f64:	39 d0                	cmp    %edx,%eax
     f66:	75 f0                	jne    f58 <.L145+0x420>
     f68:	e9 15 fd ff ff       	jmp    c82 <.L145+0x14a>
     f6d:	8b 83 0c 02 c2 01    	mov    0x1c2020c(%ebx),%eax
     f73:	85 c0                	test   %eax,%eax
     f75:	0f 8e 95 fe ff ff    	jle    e10 <.L145+0x2d8>
     f7b:	6b c0 34             	imul   $0x34,%eax,%eax
     f7e:	8d 93 b4 16 c2 01    	lea    0x1c216b4(%ebx),%edx
     f84:	89 bd c4 fe ff ff    	mov    %edi,-0x13c(%ebp)
     f8a:	89 d7                	mov    %edx,%edi
     f8c:	01 d0                	add    %edx,%eax
     f8e:	89 85 d4 fe ff ff    	mov    %eax,-0x12c(%ebp)
     f94:	8d 74 26 00          	lea    0x0(%esi,%eiz,1),%esi
     f98:	83 ec 08             	sub    $0x8,%esp
     f9b:	56                   	push   %esi
     f9c:	ff 37                	pushl  (%edi)
     f9e:	e8 cd f7 ff ff       	call   770 <strcmp@plt>
     fa3:	83 c4 10             	add    $0x10,%esp
     fa6:	85 c0                	test   %eax,%eax
     fa8:	75 06                	jne    fb0 <.L145+0x478>
     faa:	66 c7 47 04 01 00    	movw   $0x1,0x4(%edi)
     fb0:	83 c7 34             	add    $0x34,%edi
     fb3:	39 bd d4 fe ff ff    	cmp    %edi,-0x12c(%ebp)
     fb9:	75 dd                	jne    f98 <.L145+0x460>
     fbb:	e9 0b ff ff ff       	jmp    ecb <.L145+0x393>
     fc0:	83 ec 0c             	sub    $0xc,%esp
     fc3:	ff b5 d0 fe ff ff    	pushl  -0x130(%ebp)
     fc9:	e8 f2 f7 ff ff       	call   7c0 <fclose@plt>
     fce:	83 c4 10             	add    $0x10,%esp
     fd1:	e9 ac fc ff ff       	jmp    c82 <.L145+0x14a>

00000fd6 <.L138>:
     fd6:	8b 85 cc fe ff ff    	mov    -0x134(%ebp),%eax
     fdc:	83 ec 0c             	sub    $0xc,%esp
     fdf:	ff 30                	pushl  (%eax)
     fe1:	e8 ca 10 00 00       	call   20b0 <usage>
     fe6:	50                   	push   %eax
     fe7:	57                   	push   %edi
     fe8:	8d 83 85 d1 ff ff    	lea    -0x2e7b(%ebx),%eax
     fee:	50                   	push   %eax
     fef:	6a 01                	push   $0x1
     ff1:	e8 ba f8 ff ff       	call   8b0 <__printf_chk@plt>
     ff6:	c7 04 24 fb ff ff ff 	movl   $0xfffffffb,(%esp)
     ffd:	e8 3e f8 ff ff       	call   840 <exit@plt>
    1002:	8b 85 cc fe ff ff    	mov    -0x134(%ebp),%eax
    1008:	56                   	push   %esi
    1009:	ff 30                	pushl  (%eax)
    100b:	8d 83 dc d0 ff ff    	lea    -0x2f24(%ebx),%eax
    1011:	50                   	push   %eax
    1012:	6a 01                	push   $0x1
    1014:	e8 97 f8 ff ff       	call   8b0 <__printf_chk@plt>
    1019:	c7 04 24 01 00 00 00 	movl   $0x1,(%esp)
    1020:	e8 1b f8 ff ff       	call   840 <exit@plt>
    1025:	51                   	push   %ecx
    1026:	ff b5 b0 fe ff ff    	pushl  -0x150(%ebp)
    102c:	eb ba                	jmp    fe8 <.L138+0x12>
    102e:	e8 ed 1c 00 00       	call   2d20 <__stack_chk_fail_local>

00001033 <_start>:
    1033:	31 ed                	xor    %ebp,%ebp
    1035:	5e                   	pop    %esi
    1036:	89 e1                	mov    %esp,%ecx
    1038:	83 e4 f0             	and    $0xfffffff0,%esp
    103b:	50                   	push   %eax
    103c:	54                   	push   %esp
    103d:	52                   	push   %edx
    103e:	e8 22 00 00 00       	call   1065 <_start+0x32>
    1043:	81 c3 35 4f 00 00    	add    $0x4f35,%ebx
    1049:	8d 83 98 cd ff ff    	lea    -0x3268(%ebx),%eax
    104f:	50                   	push   %eax
    1050:	8d 83 38 cd ff ff    	lea    -0x32c8(%ebx),%eax
    1056:	50                   	push   %eax
    1057:	51                   	push   %ecx
    1058:	56                   	push   %esi
    1059:	ff b3 7c 00 00 00    	pushl  0x7c(%ebx)
    105f:	e8 fc f7 ff ff       	call   860 <__libc_start_main@plt>
    1064:	f4                   	hlt    
    1065:	8b 1c 24             	mov    (%esp),%ebx
    1068:	c3                   	ret    
    1069:	66 90                	xchg   %ax,%ax
    106b:	66 90                	xchg   %ax,%ax
    106d:	66 90                	xchg   %ax,%ax
    106f:	90                   	nop

00001070 <__x86.get_pc_thunk.bx>:
    1070:	8b 1c 24             	mov    (%esp),%ebx
    1073:	c3                   	ret    
    1074:	66 90                	xchg   %ax,%ax
    1076:	66 90                	xchg   %ax,%ax
    1078:	66 90                	xchg   %ax,%ax
    107a:	66 90                	xchg   %ax,%ax
    107c:	66 90                	xchg   %ax,%ax
    107e:	66 90                	xchg   %ax,%ax

00001080 <deregister_tm_clones>:
    1080:	e8 e4 00 00 00       	call   1169 <__x86.get_pc_thunk.dx>
    1085:	81 c2 f3 4e 00 00    	add    $0x4ef3,%edx
    108b:	8d 8a 80 01 00 00    	lea    0x180(%edx),%ecx
    1091:	8d 82 80 01 00 00    	lea    0x180(%edx),%eax
    1097:	39 c8                	cmp    %ecx,%eax
    1099:	74 1d                	je     10b8 <deregister_tm_clones+0x38>
    109b:	8b 82 6c 00 00 00    	mov    0x6c(%edx),%eax
    10a1:	85 c0                	test   %eax,%eax
    10a3:	74 13                	je     10b8 <deregister_tm_clones+0x38>
    10a5:	55                   	push   %ebp
    10a6:	89 e5                	mov    %esp,%ebp
    10a8:	83 ec 14             	sub    $0x14,%esp
    10ab:	51                   	push   %ecx
    10ac:	ff d0                	call   *%eax
    10ae:	83 c4 10             	add    $0x10,%esp
    10b1:	c9                   	leave  
    10b2:	c3                   	ret    
    10b3:	90                   	nop
    10b4:	8d 74 26 00          	lea    0x0(%esi,%eiz,1),%esi
    10b8:	f3 c3                	repz ret 
    10ba:	8d b6 00 00 00 00    	lea    0x0(%esi),%esi

000010c0 <register_tm_clones>:
    10c0:	e8 a4 00 00 00       	call   1169 <__x86.get_pc_thunk.dx>
    10c5:	81 c2 b3 4e 00 00    	add    $0x4eb3,%edx
    10cb:	55                   	push   %ebp
    10cc:	8d 8a 80 01 00 00    	lea    0x180(%edx),%ecx
    10d2:	8d 82 80 01 00 00    	lea    0x180(%edx),%eax
    10d8:	29 c8                	sub    %ecx,%eax
    10da:	89 e5                	mov    %esp,%ebp
    10dc:	53                   	push   %ebx
    10dd:	c1 f8 02             	sar    $0x2,%eax
    10e0:	89 c3                	mov    %eax,%ebx
    10e2:	83 ec 04             	sub    $0x4,%esp
    10e5:	c1 eb 1f             	shr    $0x1f,%ebx
    10e8:	01 d8                	add    %ebx,%eax
    10ea:	d1 f8                	sar    %eax
    10ec:	74 14                	je     1102 <register_tm_clones+0x42>
    10ee:	8b 92 80 00 00 00    	mov    0x80(%edx),%edx
    10f4:	85 d2                	test   %edx,%edx
    10f6:	74 0a                	je     1102 <register_tm_clones+0x42>
    10f8:	83 ec 08             	sub    $0x8,%esp
    10fb:	50                   	push   %eax
    10fc:	51                   	push   %ecx
    10fd:	ff d2                	call   *%edx
    10ff:	83 c4 10             	add    $0x10,%esp
    1102:	8b 5d fc             	mov    -0x4(%ebp),%ebx
    1105:	c9                   	leave  
    1106:	c3                   	ret    
    1107:	89 f6                	mov    %esi,%esi
    1109:	8d bc 27 00 00 00 00 	lea    0x0(%edi,%eiz,1),%edi

00001110 <__do_global_dtors_aux>:
    1110:	55                   	push   %ebp
    1111:	89 e5                	mov    %esp,%ebp
    1113:	53                   	push   %ebx
    1114:	e8 57 ff ff ff       	call   1070 <__x86.get_pc_thunk.bx>
    1119:	81 c3 5f 4e 00 00    	add    $0x4e5f,%ebx
    111f:	83 ec 04             	sub    $0x4,%esp
    1122:	80 bb 88 01 00 00 00 	cmpb   $0x0,0x188(%ebx)
    1129:	75 27                	jne    1152 <__do_global_dtors_aux+0x42>
    112b:	8b 83 74 00 00 00    	mov    0x74(%ebx),%eax
    1131:	85 c0                	test   %eax,%eax
    1133:	74 11                	je     1146 <__do_global_dtors_aux+0x36>
    1135:	83 ec 0c             	sub    $0xc,%esp
    1138:	ff b3 8c 00 00 00    	pushl  0x8c(%ebx)
    113e:	e8 ad f7 ff ff       	call   8f0 <__cxa_finalize@plt>
    1143:	83 c4 10             	add    $0x10,%esp
    1146:	e8 35 ff ff ff       	call   1080 <deregister_tm_clones>
    114b:	c6 83 88 01 00 00 01 	movb   $0x1,0x188(%ebx)
    1152:	8b 5d fc             	mov    -0x4(%ebp),%ebx
    1155:	c9                   	leave  
    1156:	c3                   	ret    
    1157:	89 f6                	mov    %esi,%esi
    1159:	8d bc 27 00 00 00 00 	lea    0x0(%edi,%eiz,1),%edi

00001160 <frame_dummy>:
    1160:	55                   	push   %ebp
    1161:	89 e5                	mov    %esp,%ebp
    1163:	5d                   	pop    %ebp
    1164:	e9 57 ff ff ff       	jmp    10c0 <register_tm_clones>

00001169 <__x86.get_pc_thunk.dx>:
    1169:	8b 14 24             	mov    (%esp),%edx
    116c:	c3                   	ret    
    116d:	66 90                	xchg   %ax,%ax
    116f:	90                   	nop

00001170 <func_wrapper>:
    1170:	83 ec 10             	sub    $0x10,%esp
    1173:	8b 44 24 14          	mov    0x14(%esp),%eax
    1177:	ff 70 0c             	pushl  0xc(%eax)
    117a:	ff 70 08             	pushl  0x8(%eax)
    117d:	8b 50 04             	mov    0x4(%eax),%edx
    1180:	ff 32                	pushl  (%edx)
    1182:	ff 10                	call   *(%eax)
    1184:	83 c4 1c             	add    $0x1c,%esp
    1187:	c3                   	ret    
    1188:	90                   	nop
    1189:	8d b4 26 00 00 00 00 	lea    0x0(%esi,%eiz,1),%esi

00001190 <create>:
    1190:	89 c2                	mov    %eax,%edx
    1192:	55                   	push   %ebp
    1193:	57                   	push   %edi
    1194:	0f af d0             	imul   %eax,%edx
    1197:	56                   	push   %esi
    1198:	53                   	push   %ebx
    1199:	e8 d2 fe ff ff       	call   1070 <__x86.get_pc_thunk.bx>
    119e:	81 c3 da 4d 00 00    	add    $0x4dda,%ebx
    11a4:	83 ec 3c             	sub    $0x3c,%esp
    11a7:	8d 14 52             	lea    (%edx,%edx,2),%edx
    11aa:	8d b3 e8 01 00 00    	lea    0x1e8(%ebx),%esi
    11b0:	01 d2                	add    %edx,%edx
    11b2:	89 b3 d0 01 00 00    	mov    %esi,0x1d0(%ebx)
    11b8:	8d 0c 32             	lea    (%edx,%esi,1),%ecx
    11bb:	01 ca                	add    %ecx,%edx
    11bd:	85 c0                	test   %eax,%eax
    11bf:	89 8b c8 01 00 00    	mov    %ecx,0x1c8(%ebx)
    11c5:	89 93 cc 01 00 00    	mov    %edx,0x1cc(%ebx)
    11cb:	0f 8e 13 01 00 00    	jle    12e4 <create+0x154>
    11d1:	89 c7                	mov    %eax,%edi
    11d3:	89 44 24 2c          	mov    %eax,0x2c(%esp)
    11d7:	8d 04 40             	lea    (%eax,%eax,2),%eax
    11da:	89 74 24 18          	mov    %esi,0x18(%esp)
    11de:	c7 44 24 10 00 00 00 	movl   $0x0,0x10(%esp)
    11e5:	00 
    11e6:	01 c0                	add    %eax,%eax
    11e8:	8d 2c 06             	lea    (%esi,%eax,1),%ebp
    11eb:	8d 34 bd 00 00 00 00 	lea    0x0(,%edi,4),%esi
    11f2:	29 c2                	sub    %eax,%edx
    11f4:	2b 54 24 18          	sub    0x18(%esp),%edx
    11f8:	29 c1                	sub    %eax,%ecx
    11fa:	89 6c 24 0c          	mov    %ebp,0xc(%esp)
    11fe:	89 fd                	mov    %edi,%ebp
    1200:	89 4c 24 1c          	mov    %ecx,0x1c(%esp)
    1204:	29 f5                	sub    %esi,%ebp
    1206:	6b c7 f4             	imul   $0xfffffff4,%edi,%eax
    1209:	8d 6c 2d 00          	lea    0x0(%ebp,%ebp,1),%ebp
    120d:	89 54 24 28          	mov    %edx,0x28(%esp)
    1211:	89 6c 24 20          	mov    %ebp,0x20(%esp)
    1215:	89 44 24 24          	mov    %eax,0x24(%esp)
    1219:	8d b4 26 00 00 00 00 	lea    0x0(%esi,%eiz,1),%esi
    1220:	8b 6c 24 1c          	mov    0x1c(%esp),%ebp
    1224:	2b 6c 24 18          	sub    0x18(%esp),%ebp
    1228:	8b 44 24 0c          	mov    0xc(%esp),%eax
    122c:	8b 74 24 20          	mov    0x20(%esp),%esi
    1230:	8b 7c 24 28          	mov    0x28(%esp),%edi
    1234:	01 c5                	add    %eax,%ebp
    1236:	01 c6                	add    %eax,%esi
    1238:	01 c7                	add    %eax,%edi
    123a:	89 e8                	mov    %ebp,%eax
    123c:	89 74 24 14          	mov    %esi,0x14(%esp)
    1240:	89 fd                	mov    %edi,%ebp
    1242:	89 c7                	mov    %eax,%edi
    1244:	8d 74 26 00          	lea    0x0(%esi,%eiz,1),%esi
    1248:	e8 53 f6 ff ff       	call   8a0 <rand@plt>
    124d:	89 c1                	mov    %eax,%ecx
    124f:	83 c6 06             	add    $0x6,%esi
    1252:	83 c5 06             	add    $0x6,%ebp
    1255:	c1 f9 1f             	sar    $0x1f,%ecx
    1258:	83 c7 06             	add    $0x6,%edi
    125b:	c1 e9 10             	shr    $0x10,%ecx
    125e:	01 c8                	add    %ecx,%eax
    1260:	0f b7 c0             	movzwl %ax,%eax
    1263:	29 c8                	sub    %ecx,%eax
    1265:	66 89 46 fa          	mov    %ax,-0x6(%esi)
    1269:	e8 32 f6 ff ff       	call   8a0 <rand@plt>
    126e:	89 c1                	mov    %eax,%ecx
    1270:	c1 f9 1f             	sar    $0x1f,%ecx
    1273:	c1 e9 10             	shr    $0x10,%ecx
    1276:	01 c8                	add    %ecx,%eax
    1278:	0f b7 c0             	movzwl %ax,%eax
    127b:	29 c8                	sub    %ecx,%eax
    127d:	66 89 46 fc          	mov    %ax,-0x4(%esi)
    1281:	e8 1a f6 ff ff       	call   8a0 <rand@plt>
    1286:	89 c1                	mov    %eax,%ecx
    1288:	31 d2                	xor    %edx,%edx
    128a:	c1 f9 1f             	sar    $0x1f,%ecx
    128d:	c1 e9 10             	shr    $0x10,%ecx
    1290:	01 c8                	add    %ecx,%eax
    1292:	0f b7 c0             	movzwl %ax,%eax
    1295:	29 c8                	sub    %ecx,%eax
    1297:	0f b7 4e fa          	movzwl -0x6(%esi),%ecx
    129b:	66 89 46 fe          	mov    %ax,-0x2(%esi)
    129f:	66 89 4d fa          	mov    %cx,-0x6(%ebp)
    12a3:	0f b7 4e fc          	movzwl -0x4(%esi),%ecx
    12a7:	66 89 45 fe          	mov    %ax,-0x2(%ebp)
    12ab:	31 c0                	xor    %eax,%eax
    12ad:	66 89 4d fc          	mov    %cx,-0x4(%ebp)
    12b1:	31 c9                	xor    %ecx,%ecx
    12b3:	66 89 47 fa          	mov    %ax,-0x6(%edi)
    12b7:	66 89 57 fc          	mov    %dx,-0x4(%edi)
    12bb:	66 89 4f fe          	mov    %cx,-0x2(%edi)
    12bf:	3b 74 24 0c          	cmp    0xc(%esp),%esi
    12c3:	75 83                	jne    1248 <create+0xb8>
    12c5:	83 44 24 10 01       	addl   $0x1,0x10(%esp)
    12ca:	8b 54 24 14          	mov    0x14(%esp),%edx
    12ce:	8b 44 24 10          	mov    0x10(%esp),%eax
    12d2:	2b 54 24 24          	sub    0x24(%esp),%edx
    12d6:	39 44 24 2c          	cmp    %eax,0x2c(%esp)
    12da:	89 54 24 0c          	mov    %edx,0xc(%esp)
    12de:	0f 85 3c ff ff ff    	jne    1220 <create+0x90>
    12e4:	83 c4 3c             	add    $0x3c,%esp
    12e7:	5b                   	pop    %ebx
    12e8:	5e                   	pop    %esi
    12e9:	5f                   	pop    %edi
    12ea:	5d                   	pop    %ebp
    12eb:	c3                   	ret    
    12ec:	8d 74 26 00          	lea    0x0(%esi,%eiz,1),%esi

000012f0 <check_orig>:
    12f0:	55                   	push   %ebp
    12f1:	57                   	push   %edi
    12f2:	56                   	push   %esi
    12f3:	53                   	push   %ebx
    12f4:	e8 6a 0e 00 00       	call   2163 <__x86.get_pc_thunk.di>
    12f9:	81 c7 7f 4c 00 00    	add    $0x4c7f,%edi
    12ff:	83 ec 2c             	sub    $0x2c,%esp
    1302:	85 c0                	test   %eax,%eax
    1304:	0f 8e cf 00 00 00    	jle    13d9 <check_orig+0xe9>
    130a:	89 c5                	mov    %eax,%ebp
    130c:	8b 8f cc 01 00 00    	mov    0x1cc(%edi),%ecx
    1312:	8d 04 40             	lea    (%eax,%eax,2),%eax
    1315:	8b 97 d0 01 00 00    	mov    0x1d0(%edi),%edx
    131b:	c7 44 24 14 00 00 00 	movl   $0x0,0x14(%esp)
    1322:	00 
    1323:	01 c0                	add    %eax,%eax
    1325:	89 6c 24 1c          	mov    %ebp,0x1c(%esp)
    1329:	29 c1                	sub    %eax,%ecx
    132b:	8d 34 02             	lea    (%edx,%eax,1),%esi
    132e:	89 c8                	mov    %ecx,%eax
    1330:	29 d0                	sub    %edx,%eax
    1332:	6b dd fa             	imul   $0xfffffffa,%ebp,%ebx
    1335:	89 44 24 0c          	mov    %eax,0xc(%esp)
    1339:	6b c5 f4             	imul   $0xfffffff4,%ebp,%eax
    133c:	89 5c 24 10          	mov    %ebx,0x10(%esp)
    1340:	89 44 24 18          	mov    %eax,0x18(%esp)
    1344:	8b 44 24 10          	mov    0x10(%esp),%eax
    1348:	8d 2c 30             	lea    (%eax,%esi,1),%ebp
    134b:	8b 44 24 0c          	mov    0xc(%esp),%eax
    134f:	8d 14 30             	lea    (%eax,%esi,1),%edx
    1352:	89 e8                	mov    %ebp,%eax
    1354:	eb 1e                	jmp    1374 <check_orig+0x84>
    1356:	8d 76 00             	lea    0x0(%esi),%esi
    1359:	8d bc 27 00 00 00 00 	lea    0x0(%edi,%eiz,1),%edi
    1360:	0f b7 5a 04          	movzwl 0x4(%edx),%ebx
    1364:	66 39 58 04          	cmp    %bx,0x4(%eax)
    1368:	75 22                	jne    138c <check_orig+0x9c>
    136a:	83 c0 06             	add    $0x6,%eax
    136d:	83 c2 06             	add    $0x6,%edx
    1370:	39 c6                	cmp    %eax,%esi
    1372:	74 4c                	je     13c0 <check_orig+0xd0>
    1374:	0f b7 0a             	movzwl (%edx),%ecx
    1377:	66 39 08             	cmp    %cx,(%eax)
    137a:	0f b7 4a 02          	movzwl 0x2(%edx),%ecx
    137e:	0f 95 c3             	setne  %bl
    1381:	66 39 48 02          	cmp    %cx,0x2(%eax)
    1385:	0f 95 c1             	setne  %cl
    1388:	08 cb                	or     %cl,%bl
    138a:	74 d4                	je     1360 <check_orig+0x70>
    138c:	83 ec 0c             	sub    $0xc,%esp
    138f:	89 fb                	mov    %edi,%ebx
    1391:	6a 0a                	push   $0xa
    1393:	e8 f8 f4 ff ff       	call   890 <putchar@plt>
    1398:	8d 87 f0 cd ff ff    	lea    -0x3210(%edi),%eax
    139e:	89 04 24             	mov    %eax,(%esp)
    13a1:	e8 7a f4 ff ff       	call   820 <puts@plt>
    13a6:	83 c4 10             	add    $0x10,%esp
    13a9:	b8 01 00 00 00       	mov    $0x1,%eax
    13ae:	83 c4 2c             	add    $0x2c,%esp
    13b1:	5b                   	pop    %ebx
    13b2:	5e                   	pop    %esi
    13b3:	5f                   	pop    %edi
    13b4:	5d                   	pop    %ebp
    13b5:	c3                   	ret    
    13b6:	8d 76 00             	lea    0x0(%esi),%esi
    13b9:	8d bc 27 00 00 00 00 	lea    0x0(%edi,%eiz,1),%edi
    13c0:	83 44 24 14 01       	addl   $0x1,0x14(%esp)
    13c5:	89 ee                	mov    %ebp,%esi
    13c7:	2b 74 24 18          	sub    0x18(%esp),%esi
    13cb:	8b 44 24 14          	mov    0x14(%esp),%eax
    13cf:	39 44 24 1c          	cmp    %eax,0x1c(%esp)
    13d3:	0f 85 6b ff ff ff    	jne    1344 <check_orig+0x54>
    13d9:	31 c0                	xor    %eax,%eax
    13db:	eb d1                	jmp    13ae <check_orig+0xbe>
    13dd:	8d 76 00             	lea    0x0(%esi),%esi

000013e0 <check_rotate>:
    13e0:	55                   	push   %ebp
    13e1:	57                   	push   %edi
    13e2:	56                   	push   %esi
    13e3:	53                   	push   %ebx
    13e4:	89 c3                	mov    %eax,%ebx
    13e6:	e8 78 0d 00 00       	call   2163 <__x86.get_pc_thunk.di>
    13eb:	81 c7 8d 4b 00 00    	add    $0x4b8d,%edi
    13f1:	83 ec 4c             	sub    $0x4c,%esp
    13f4:	89 7c 24 38          	mov    %edi,0x38(%esp)
    13f8:	89 44 24 0c          	mov    %eax,0xc(%esp)
    13fc:	e8 ef fe ff ff       	call   12f0 <check_orig>
    1401:	85 c0                	test   %eax,%eax
    1403:	0f 85 df 01 00 00    	jne    15e8 <check_rotate+0x208>
    1409:	85 db                	test   %ebx,%ebx
    140b:	0f 8e eb 01 00 00    	jle    15fc <check_rotate+0x21c>
    1411:	8d 04 5b             	lea    (%ebx,%ebx,2),%eax
    1414:	8d 53 ff             	lea    -0x1(%ebx),%edx
    1417:	c7 44 24 1c 00 00 00 	movl   $0x0,0x1c(%esp)
    141e:	00 
    141f:	c7 44 24 18 00 00 00 	movl   $0x0,0x18(%esp)
    1426:	00 
    1427:	c7 44 24 08 00 00 00 	movl   $0x0,0x8(%esp)
    142e:	00 
    142f:	01 c0                	add    %eax,%eax
    1431:	89 54 24 3c          	mov    %edx,0x3c(%esp)
    1435:	c7 44 24 10 00 00 00 	movl   $0x0,0x10(%esp)
    143c:	00 
    143d:	89 44 24 34          	mov    %eax,0x34(%esp)
    1441:	8b 87 d0 01 00 00    	mov    0x1d0(%edi),%eax
    1447:	89 44 24 30          	mov    %eax,0x30(%esp)
    144b:	89 d8                	mov    %ebx,%eax
    144d:	0f af c2             	imul   %edx,%eax
    1450:	8d 14 40             	lea    (%eax,%eax,2),%edx
    1453:	8b 87 c8 01 00 00    	mov    0x1c8(%edi),%eax
    1459:	8d 44 50 02          	lea    0x2(%eax,%edx,2),%eax
    145d:	89 44 24 2c          	mov    %eax,0x2c(%esp)
    1461:	6b c3 fa             	imul   $0xfffffffa,%ebx,%eax
    1464:	89 44 24 14          	mov    %eax,0x14(%esp)
    1468:	90                   	nop
    1469:	8d b4 26 00 00 00 00 	lea    0x0(%esi,%eiz,1),%esi
    1470:	8b 74 24 2c          	mov    0x2c(%esp),%esi
    1474:	8b 6c 24 30          	mov    0x30(%esp),%ebp
    1478:	31 ff                	xor    %edi,%edi
    147a:	8d b6 00 00 00 00    	lea    0x0(%esi),%esi
    1480:	0f b7 45 04          	movzwl 0x4(%ebp),%eax
    1484:	0f b7 4d 02          	movzwl 0x2(%ebp),%ecx
    1488:	0f b7 5d 00          	movzwl 0x0(%ebp),%ebx
    148c:	66 89 44 24 04       	mov    %ax,0x4(%esp)
    1491:	0f b7 46 fe          	movzwl -0x2(%esi),%eax
    1495:	66 89 04 24          	mov    %ax,(%esp)
    1499:	0f b7 06             	movzwl (%esi),%eax
    149c:	66 89 44 24 02       	mov    %ax,0x2(%esp)
    14a1:	66 3b 4c 24 02       	cmp    0x2(%esp),%cx
    14a6:	0f b7 46 02          	movzwl 0x2(%esi),%eax
    14aa:	0f 95 44 24 07       	setne  0x7(%esp)
    14af:	66 3b 1c 24          	cmp    (%esp),%bx
    14b3:	89 c2                	mov    %eax,%edx
    14b5:	0f b6 44 24 07       	movzbl 0x7(%esp),%eax
    14ba:	0f 95 44 24 07       	setne  0x7(%esp)
    14bf:	0a 44 24 07          	or     0x7(%esp),%al
    14c3:	75 07                	jne    14cc <check_rotate+0xec>
    14c5:	66 39 54 24 04       	cmp    %dx,0x4(%esp)
    14ca:	74 3d                	je     1509 <check_rotate+0x129>
    14cc:	0f b7 44 24 02       	movzwl 0x2(%esp),%eax
    14d1:	83 44 24 10 01       	addl   $0x1,0x10(%esp)
    14d6:	66 89 54 24 2a       	mov    %dx,0x2a(%esp)
    14db:	66 89 4c 24 20       	mov    %cx,0x20(%esp)
    14e0:	66 89 5c 24 24       	mov    %bx,0x24(%esp)
    14e5:	89 7c 24 1c          	mov    %edi,0x1c(%esp)
    14e9:	66 89 44 24 28       	mov    %ax,0x28(%esp)
    14ee:	0f b7 04 24          	movzwl (%esp),%eax
    14f2:	66 89 44 24 26       	mov    %ax,0x26(%esp)
    14f7:	0f b7 44 24 04       	movzwl 0x4(%esp),%eax
    14fc:	66 89 44 24 22       	mov    %ax,0x22(%esp)
    1501:	8b 44 24 08          	mov    0x8(%esp),%eax
    1505:	89 44 24 18          	mov    %eax,0x18(%esp)
    1509:	83 c7 01             	add    $0x1,%edi
    150c:	83 c5 06             	add    $0x6,%ebp
    150f:	03 74 24 14          	add    0x14(%esp),%esi
    1513:	39 7c 24 0c          	cmp    %edi,0xc(%esp)
    1517:	0f 85 63 ff ff ff    	jne    1480 <check_rotate+0xa0>
    151d:	83 44 24 08 01       	addl   $0x1,0x8(%esp)
    1522:	8b 4c 24 34          	mov    0x34(%esp),%ecx
    1526:	8b 44 24 08          	mov    0x8(%esp),%eax
    152a:	01 4c 24 30          	add    %ecx,0x30(%esp)
    152e:	83 44 24 2c 06       	addl   $0x6,0x2c(%esp)
    1533:	3b 44 24 0c          	cmp    0xc(%esp),%eax
    1537:	0f 85 33 ff ff ff    	jne    1470 <check_rotate+0x90>
    153d:	8b 74 24 10          	mov    0x10(%esp),%esi
    1541:	85 f6                	test   %esi,%esi
    1543:	0f 84 8d 00 00 00    	je     15d6 <check_rotate+0x1f6>
    1549:	83 ec 0c             	sub    $0xc,%esp
    154c:	6a 0a                	push   $0xa
    154e:	8b 7c 24 48          	mov    0x48(%esp),%edi
    1552:	89 fb                	mov    %edi,%ebx
    1554:	e8 37 f3 ff ff       	call   890 <putchar@plt>
    1559:	8d 87 18 ce ff ff    	lea    -0x31e8(%edi),%eax
    155f:	56                   	push   %esi
    1560:	ff 74 24 1c          	pushl  0x1c(%esp)
    1564:	50                   	push   %eax
    1565:	6a 01                	push   $0x1
    1567:	e8 44 f3 ff ff       	call   8b0 <__printf_chk@plt>
    156c:	8d 87 38 ce ff ff    	lea    -0x31c8(%edi),%eax
    1572:	83 c4 14             	add    $0x14,%esp
    1575:	50                   	push   %eax
    1576:	e8 a5 f2 ff ff       	call   820 <puts@plt>
    157b:	83 c4 0c             	add    $0xc,%esp
    157e:	0f b7 44 24 26       	movzwl 0x26(%esp),%eax
    1583:	50                   	push   %eax
    1584:	0f b7 44 24 28       	movzwl 0x28(%esp),%eax
    1589:	50                   	push   %eax
    158a:	0f b7 44 24 30       	movzwl 0x30(%esp),%eax
    158f:	50                   	push   %eax
    1590:	8b 74 24 2c          	mov    0x2c(%esp),%esi
    1594:	8d 87 70 ce ff ff    	lea    -0x3190(%edi),%eax
    159a:	56                   	push   %esi
    159b:	8b 6c 24 2c          	mov    0x2c(%esp),%ebp
    159f:	55                   	push   %ebp
    15a0:	50                   	push   %eax
    15a1:	6a 01                	push   $0x1
    15a3:	e8 08 f3 ff ff       	call   8b0 <__printf_chk@plt>
    15a8:	83 c4 1c             	add    $0x1c,%esp
    15ab:	0f b7 44 24 2e       	movzwl 0x2e(%esp),%eax
    15b0:	50                   	push   %eax
    15b1:	0f b7 44 24 30       	movzwl 0x30(%esp),%eax
    15b6:	50                   	push   %eax
    15b7:	0f b7 44 24 32       	movzwl 0x32(%esp),%eax
    15bc:	50                   	push   %eax
    15bd:	55                   	push   %ebp
    15be:	8b 44 24 50          	mov    0x50(%esp),%eax
    15c2:	29 f0                	sub    %esi,%eax
    15c4:	50                   	push   %eax
    15c5:	8d 87 9c ce ff ff    	lea    -0x3164(%edi),%eax
    15cb:	50                   	push   %eax
    15cc:	6a 01                	push   $0x1
    15ce:	e8 dd f2 ff ff       	call   8b0 <__printf_chk@plt>
    15d3:	83 c4 20             	add    $0x20,%esp
    15d6:	8b 44 24 10          	mov    0x10(%esp),%eax
    15da:	83 c4 4c             	add    $0x4c,%esp
    15dd:	5b                   	pop    %ebx
    15de:	5e                   	pop    %esi
    15df:	5f                   	pop    %edi
    15e0:	5d                   	pop    %ebp
    15e1:	c3                   	ret    
    15e2:	8d b6 00 00 00 00    	lea    0x0(%esi),%esi
    15e8:	c7 44 24 10 01 00 00 	movl   $0x1,0x10(%esp)
    15ef:	00 
    15f0:	8b 44 24 10          	mov    0x10(%esp),%eax
    15f4:	83 c4 4c             	add    $0x4c,%esp
    15f7:	5b                   	pop    %ebx
    15f8:	5e                   	pop    %esi
    15f9:	5f                   	pop    %edi
    15fa:	5d                   	pop    %ebp
    15fb:	c3                   	ret    
    15fc:	c7 44 24 10 00 00 00 	movl   $0x0,0x10(%esp)
    1603:	00 
    1604:	eb d0                	jmp    15d6 <check_rotate+0x1f6>
    1606:	8d 76 00             	lea    0x0(%esi),%esi
    1609:	8d bc 27 00 00 00 00 	lea    0x0(%edi,%eiz,1),%edi

00001610 <check_smooth>:
    1610:	55                   	push   %ebp
    1611:	57                   	push   %edi
    1612:	56                   	push   %esi
    1613:	53                   	push   %ebx
    1614:	89 c3                	mov    %eax,%ebx
    1616:	e8 44 0b 00 00       	call   215f <__x86.get_pc_thunk.si>
    161b:	81 c6 5d 49 00 00    	add    $0x495d,%esi
    1621:	83 ec 7c             	sub    $0x7c,%esp
    1624:	89 74 24 48          	mov    %esi,0x48(%esp)
    1628:	89 44 24 30          	mov    %eax,0x30(%esp)
    162c:	e8 bf fc ff ff       	call   12f0 <check_orig>
    1631:	85 c0                	test   %eax,%eax
    1633:	0f 85 39 02 00 00    	jne    1872 <check_smooth+0x262>
    1639:	85 db                	test   %ebx,%ebx
    163b:	89 d8                	mov    %ebx,%eax
    163d:	0f 8e d6 02 00 00    	jle    1919 <check_smooth+0x309>
    1643:	8b 9e d0 01 00 00    	mov    0x1d0(%esi),%ebx
    1649:	c7 44 24 50 00 00 00 	movl   $0x0,0x50(%esp)
    1650:	00 
    1651:	c7 44 24 4c 00 00 00 	movl   $0x0,0x4c(%esp)
    1658:	00 
    1659:	c7 44 24 34 00 00 00 	movl   $0x0,0x34(%esp)
    1660:	00 
    1661:	c7 44 24 44 00 00 00 	movl   $0x0,0x44(%esp)
    1668:	00 
    1669:	c7 44 24 68 00 00 00 	movl   $0x0,0x68(%esp)
    1670:	00 
    1671:	89 5c 24 64          	mov    %ebx,0x64(%esp)
    1675:	8d 58 ff             	lea    -0x1(%eax),%ebx
    1678:	8d 04 40             	lea    (%eax,%eax,2),%eax
    167b:	01 c0                	add    %eax,%eax
    167d:	89 5c 24 38          	mov    %ebx,0x38(%esp)
    1681:	89 44 24 18          	mov    %eax,0x18(%esp)
    1685:	8b 44 24 34          	mov    0x34(%esp),%eax
    1689:	be 01 00 00 00       	mov    $0x1,%esi
    168e:	c7 44 24 24 00 00 00 	movl   $0x0,0x24(%esp)
    1695:	00 
    1696:	85 c0                	test   %eax,%eax
    1698:	8d 58 01             	lea    0x1(%eax),%ebx
    169b:	0f 4f f0             	cmovg  %eax,%esi
    169e:	89 f0                	mov    %esi,%eax
    16a0:	8b 74 24 38          	mov    0x38(%esp),%esi
    16a4:	89 5c 24 6c          	mov    %ebx,0x6c(%esp)
    16a8:	83 e8 01             	sub    $0x1,%eax
    16ab:	89 44 24 3c          	mov    %eax,0x3c(%esp)
    16af:	39 de                	cmp    %ebx,%esi
    16b1:	0f 4e de             	cmovle %esi,%ebx
    16b4:	0f af 44 24 30       	imul   0x30(%esp),%eax
    16b9:	89 5c 24 40          	mov    %ebx,0x40(%esp)
    16bd:	89 44 24 58          	mov    %eax,0x58(%esp)
    16c1:	8b 44 24 68          	mov    0x68(%esp),%eax
    16c5:	89 44 24 28          	mov    %eax,0x28(%esp)
    16c9:	8d 43 01             	lea    0x1(%ebx),%eax
    16cc:	89 44 24 1c          	mov    %eax,0x1c(%esp)
    16d0:	8b 74 24 24          	mov    0x24(%esp),%esi
    16d4:	b8 01 00 00 00       	mov    $0x1,%eax
    16d9:	8b 7c 24 3c          	mov    0x3c(%esp),%edi
    16dd:	85 f6                	test   %esi,%esi
    16df:	0f 4f c6             	cmovg  %esi,%eax
    16e2:	83 c6 01             	add    $0x1,%esi
    16e5:	8d 58 ff             	lea    -0x1(%eax),%ebx
    16e8:	89 74 24 2c          	mov    %esi,0x2c(%esp)
    16ec:	89 5c 24 08          	mov    %ebx,0x8(%esp)
    16f0:	8b 5c 24 38          	mov    0x38(%esp),%ebx
    16f4:	39 de                	cmp    %ebx,%esi
    16f6:	0f 4e de             	cmovle %esi,%ebx
    16f9:	8b 74 24 40          	mov    0x40(%esp),%esi
    16fd:	89 5c 24 0c          	mov    %ebx,0xc(%esp)
    1701:	39 f7                	cmp    %esi,%edi
    1703:	0f 8f 67 01 00 00    	jg     1870 <check_smooth+0x260>
    1709:	8b 74 24 58          	mov    0x58(%esp),%esi
    170d:	29 c3                	sub    %eax,%ebx
    170f:	89 3c 24             	mov    %edi,(%esp)
    1712:	8d 0c 5b             	lea    (%ebx,%ebx,2),%ecx
    1715:	c7 44 24 10 00 00 00 	movl   $0x0,0x10(%esp)
    171c:	00 
    171d:	8d 14 30             	lea    (%eax,%esi,1),%edx
    1720:	8b 74 24 64          	mov    0x64(%esp),%esi
    1724:	8d 7c 09 0c          	lea    0xc(%ecx,%ecx,1),%edi
    1728:	31 c0                	xor    %eax,%eax
    172a:	8d 14 52             	lea    (%edx,%edx,2),%edx
    172d:	89 7c 24 14          	mov    %edi,0x14(%esp)
    1731:	8d 6c 56 fa          	lea    -0x6(%esi,%edx,2),%ebp
    1735:	89 da                	mov    %ebx,%edx
    1737:	31 f6                	xor    %esi,%esi
    1739:	8d 7a 02             	lea    0x2(%edx),%edi
    173c:	31 db                	xor    %ebx,%ebx
    173e:	89 7c 24 20          	mov    %edi,0x20(%esp)
    1742:	8d b6 00 00 00 00    	lea    0x0(%esi),%esi
    1748:	8b 7c 24 14          	mov    0x14(%esp),%edi
    174c:	8b 54 24 0c          	mov    0xc(%esp),%edx
    1750:	89 6c 24 04          	mov    %ebp,0x4(%esp)
    1754:	01 ef                	add    %ebp,%edi
    1756:	39 54 24 08          	cmp    %edx,0x8(%esp)
    175a:	7f 24                	jg     1780 <check_smooth+0x170>
    175c:	8b 54 24 04          	mov    0x4(%esp),%edx
    1760:	0f b7 0a             	movzwl (%edx),%ecx
    1763:	83 c2 06             	add    $0x6,%edx
    1766:	01 c8                	add    %ecx,%eax
    1768:	0f b7 4a fc          	movzwl -0x4(%edx),%ecx
    176c:	01 cb                	add    %ecx,%ebx
    176e:	0f b7 4a fe          	movzwl -0x2(%edx),%ecx
    1772:	01 ce                	add    %ecx,%esi
    1774:	39 d7                	cmp    %edx,%edi
    1776:	75 e8                	jne    1760 <check_smooth+0x150>
    1778:	8b 54 24 20          	mov    0x20(%esp),%edx
    177c:	01 54 24 10          	add    %edx,0x10(%esp)
    1780:	83 04 24 01          	addl   $0x1,(%esp)
    1784:	03 6c 24 18          	add    0x18(%esp),%ebp
    1788:	8b 3c 24             	mov    (%esp),%edi
    178b:	39 7c 24 1c          	cmp    %edi,0x1c(%esp)
    178f:	75 b7                	jne    1748 <check_smooth+0x138>
    1791:	8b 7c 24 10          	mov    0x10(%esp),%edi
    1795:	99                   	cltd   
    1796:	f7 ff                	idiv   %edi
    1798:	89 c1                	mov    %eax,%ecx
    179a:	89 d8                	mov    %ebx,%eax
    179c:	99                   	cltd   
    179d:	f7 ff                	idiv   %edi
    179f:	89 c3                	mov    %eax,%ebx
    17a1:	89 f0                	mov    %esi,%eax
    17a3:	8b 74 24 28          	mov    0x28(%esp),%esi
    17a7:	99                   	cltd   
    17a8:	f7 ff                	idiv   %edi
    17aa:	89 c7                	mov    %eax,%edi
    17ac:	8b 44 24 48          	mov    0x48(%esp),%eax
    17b0:	03 b0 c8 01 00 00    	add    0x1c8(%eax),%esi
    17b6:	0f b7 46 02          	movzwl 0x2(%esi),%eax
    17ba:	0f b7 16             	movzwl (%esi),%edx
    17bd:	0f b7 76 04          	movzwl 0x4(%esi),%esi
    17c1:	66 39 d8             	cmp    %bx,%ax
    17c4:	66 89 44 24 08       	mov    %ax,0x8(%esp)
    17c9:	66 89 54 24 04       	mov    %dx,0x4(%esp)
    17ce:	0f 95 c0             	setne  %al
    17d1:	66 39 ca             	cmp    %cx,%dx
    17d4:	89 c5                	mov    %eax,%ebp
    17d6:	0f 95 04 24          	setne  (%esp)
    17da:	0f b6 04 24          	movzbl (%esp),%eax
    17de:	89 ea                	mov    %ebp,%edx
    17e0:	08 c2                	or     %al,%dl
    17e2:	75 05                	jne    17e9 <check_smooth+0x1d9>
    17e4:	66 39 fe             	cmp    %di,%si
    17e7:	74 3d                	je     1826 <check_smooth+0x216>
    17e9:	0f b7 44 24 08       	movzwl 0x8(%esp),%eax
    17ee:	83 44 24 44 01       	addl   $0x1,0x44(%esp)
    17f3:	66 89 74 24 62       	mov    %si,0x62(%esp)
    17f8:	66 89 7c 24 56       	mov    %di,0x56(%esp)
    17fd:	66 89 5c 24 54       	mov    %bx,0x54(%esp)
    1802:	66 89 4c 24 5c       	mov    %cx,0x5c(%esp)
    1807:	66 89 44 24 60       	mov    %ax,0x60(%esp)
    180c:	0f b7 44 24 04       	movzwl 0x4(%esp),%eax
    1811:	66 89 44 24 5e       	mov    %ax,0x5e(%esp)
    1816:	8b 44 24 24          	mov    0x24(%esp),%eax
    181a:	89 44 24 50          	mov    %eax,0x50(%esp)
    181e:	8b 44 24 34          	mov    0x34(%esp),%eax
    1822:	89 44 24 4c          	mov    %eax,0x4c(%esp)
    1826:	8b 44 24 2c          	mov    0x2c(%esp),%eax
    182a:	83 44 24 28 06       	addl   $0x6,0x28(%esp)
    182f:	39 44 24 30          	cmp    %eax,0x30(%esp)
    1833:	89 44 24 24          	mov    %eax,0x24(%esp)
    1837:	0f 85 93 fe ff ff    	jne    16d0 <check_smooth+0xc0>
    183d:	8b 44 24 6c          	mov    0x6c(%esp),%eax
    1841:	8b 5c 24 18          	mov    0x18(%esp),%ebx
    1845:	01 5c 24 68          	add    %ebx,0x68(%esp)
    1849:	39 44 24 30          	cmp    %eax,0x30(%esp)
    184d:	89 44 24 34          	mov    %eax,0x34(%esp)
    1851:	0f 85 2e fe ff ff    	jne    1685 <check_smooth+0x75>
    1857:	8b 7c 24 44          	mov    0x44(%esp),%edi
    185b:	85 ff                	test   %edi,%edi
    185d:	75 27                	jne    1886 <check_smooth+0x276>
    185f:	8b 44 24 44          	mov    0x44(%esp),%eax
    1863:	83 c4 7c             	add    $0x7c,%esp
    1866:	5b                   	pop    %ebx
    1867:	5e                   	pop    %esi
    1868:	5f                   	pop    %edi
    1869:	5d                   	pop    %ebp
    186a:	c3                   	ret    
    186b:	90                   	nop
    186c:	8d 74 26 00          	lea    0x0(%esi,%eiz,1),%esi
    1870:	0f 0b                	ud2    
    1872:	c7 44 24 44 01 00 00 	movl   $0x1,0x44(%esp)
    1879:	00 
    187a:	8b 44 24 44          	mov    0x44(%esp),%eax
    187e:	83 c4 7c             	add    $0x7c,%esp
    1881:	5b                   	pop    %ebx
    1882:	5e                   	pop    %esi
    1883:	5f                   	pop    %edi
    1884:	5d                   	pop    %ebp
    1885:	c3                   	ret    
    1886:	83 ec 0c             	sub    $0xc,%esp
    1889:	6a 0a                	push   $0xa
    188b:	8b 74 24 58          	mov    0x58(%esp),%esi
    188f:	89 f3                	mov    %esi,%ebx
    1891:	e8 fa ef ff ff       	call   890 <putchar@plt>
    1896:	8d 86 18 ce ff ff    	lea    -0x31e8(%esi),%eax
    189c:	57                   	push   %edi
    189d:	ff 74 24 44          	pushl  0x44(%esp)
    18a1:	50                   	push   %eax
    18a2:	6a 01                	push   $0x1
    18a4:	e8 07 f0 ff ff       	call   8b0 <__printf_chk@plt>
    18a9:	8d 86 0e d1 ff ff    	lea    -0x2ef2(%esi),%eax
    18af:	83 c4 14             	add    $0x14,%esp
    18b2:	50                   	push   %eax
    18b3:	e8 68 ef ff ff       	call   820 <puts@plt>
    18b8:	83 c4 0c             	add    $0xc,%esp
    18bb:	0f b7 44 24 66       	movzwl 0x66(%esp),%eax
    18c0:	50                   	push   %eax
    18c1:	0f b7 44 24 68       	movzwl 0x68(%esp),%eax
    18c6:	50                   	push   %eax
    18c7:	0f b7 44 24 6a       	movzwl 0x6a(%esp),%eax
    18cc:	50                   	push   %eax
    18cd:	8b 6c 24 60          	mov    0x60(%esp),%ebp
    18d1:	8d 86 c8 ce ff ff    	lea    -0x3138(%esi),%eax
    18d7:	55                   	push   %ebp
    18d8:	8b 7c 24 60          	mov    0x60(%esp),%edi
    18dc:	57                   	push   %edi
    18dd:	50                   	push   %eax
    18de:	6a 01                	push   $0x1
    18e0:	e8 cb ef ff ff       	call   8b0 <__printf_chk@plt>
    18e5:	83 c4 1c             	add    $0x1c,%esp
    18e8:	0f b7 44 24 5a       	movzwl 0x5a(%esp),%eax
    18ed:	50                   	push   %eax
    18ee:	0f b7 44 24 5c       	movzwl 0x5c(%esp),%eax
    18f3:	50                   	push   %eax
    18f4:	0f b7 44 24 68       	movzwl 0x68(%esp),%eax
    18f9:	50                   	push   %eax
    18fa:	8d 86 fc ce ff ff    	lea    -0x3104(%esi),%eax
    1900:	55                   	push   %ebp
    1901:	57                   	push   %edi
    1902:	50                   	push   %eax
    1903:	6a 01                	push   $0x1
    1905:	e8 a6 ef ff ff       	call   8b0 <__printf_chk@plt>
    190a:	83 c4 20             	add    $0x20,%esp
    190d:	8b 44 24 44          	mov    0x44(%esp),%eax
    1911:	83 c4 7c             	add    $0x7c,%esp
    1914:	5b                   	pop    %ebx
    1915:	5e                   	pop    %esi
    1916:	5f                   	pop    %edi
    1917:	5d                   	pop    %ebp
    1918:	c3                   	ret    
    1919:	c7 44 24 44 00 00 00 	movl   $0x0,0x44(%esp)
    1920:	00 
    1921:	8b 44 24 44          	mov    0x44(%esp),%eax
    1925:	83 c4 7c             	add    $0x7c,%esp
    1928:	5b                   	pop    %ebx
    1929:	5e                   	pop    %esi
    192a:	5f                   	pop    %edi
    192b:	5d                   	pop    %ebp
    192c:	c3                   	ret    
    192d:	8d 76 00             	lea    0x0(%esi),%esi

00001930 <add_smooth_function>:
    1930:	e8 26 08 00 00       	call   215b <__x86.get_pc_thunk.ax>
    1935:	05 43 46 00 00       	add    $0x4643,%eax
    193a:	56                   	push   %esi
    193b:	53                   	push   %ebx
    193c:	8b 90 08 02 c2 01    	mov    0x1c20208(%eax),%edx
    1942:	8b 74 24 0c          	mov    0xc(%esp),%esi
    1946:	6b da 34             	imul   $0x34,%edx,%ebx
    1949:	83 c2 01             	add    $0x1,%edx
    194c:	89 90 08 02 c2 01    	mov    %edx,0x1c20208(%eax)
    1952:	8d 8c 18 28 02 c2 01 	lea    0x1c20228(%eax,%ebx,1),%ecx
    1959:	89 31                	mov    %esi,(%ecx)
    195b:	8b 74 24 10          	mov    0x10(%esp),%esi
    195f:	89 b4 18 54 02 c2 01 	mov    %esi,0x1c20254(%eax,%ebx,1)
    1966:	31 db                	xor    %ebx,%ebx
    1968:	66 89 59 30          	mov    %bx,0x30(%ecx)
    196c:	5b                   	pop    %ebx
    196d:	5e                   	pop    %esi
    196e:	c3                   	ret    
    196f:	90                   	nop

00001970 <add_rotate_function>:
    1970:	e8 e6 07 00 00       	call   215b <__x86.get_pc_thunk.ax>
    1975:	05 03 46 00 00       	add    $0x4603,%eax
    197a:	56                   	push   %esi
    197b:	53                   	push   %ebx
    197c:	8b 90 0c 02 c2 01    	mov    0x1c2020c(%eax),%edx
    1982:	8b 74 24 0c          	mov    0xc(%esp),%esi
    1986:	6b da 34             	imul   $0x34,%edx,%ebx
    1989:	83 c2 01             	add    $0x1,%edx
    198c:	89 90 0c 02 c2 01    	mov    %edx,0x1c2020c(%eax)
    1992:	8d 8c 18 88 16 c2 01 	lea    0x1c21688(%eax,%ebx,1),%ecx
    1999:	89 31                	mov    %esi,(%ecx)
    199b:	8b 74 24 10          	mov    0x10(%esp),%esi
    199f:	89 b4 18 b4 16 c2 01 	mov    %esi,0x1c216b4(%eax,%ebx,1)
    19a6:	31 db                	xor    %ebx,%ebx
    19a8:	66 89 59 30          	mov    %bx,0x30(%ecx)
    19ac:	5b                   	pop    %ebx
    19ad:	5e                   	pop    %esi
    19ae:	c3                   	ret    
    19af:	90                   	nop

000019b0 <run_rotate_benchmark>:
    19b0:	83 ec 10             	sub    $0x10,%esp
    19b3:	6b 54 24 14 34       	imul   $0x34,0x14(%esp),%edx
    19b8:	e8 9e 07 00 00       	call   215b <__x86.get_pc_thunk.ax>
    19bd:	05 bb 45 00 00       	add    $0x45bb,%eax
    19c2:	ff b0 c8 01 00 00    	pushl  0x1c8(%eax)
    19c8:	ff b0 d0 01 00 00    	pushl  0x1d0(%eax)
    19ce:	ff 74 24 20          	pushl  0x20(%esp)
    19d2:	ff 94 10 88 16 c2 01 	call   *0x1c21688(%eax,%edx,1)
    19d9:	83 c4 1c             	add    $0x1c,%esp
    19dc:	c3                   	ret    
    19dd:	8d 76 00             	lea    0x0(%esi),%esi

000019e0 <test_rotate>:
    19e0:	55                   	push   %ebp
    19e1:	57                   	push   %edi
    19e2:	31 ff                	xor    %edi,%edi
    19e4:	56                   	push   %esi
    19e5:	53                   	push   %ebx
    19e6:	e8 85 f6 ff ff       	call   1070 <__x86.get_pc_thunk.bx>
    19eb:	81 c3 8d 45 00 00    	add    $0x458d,%ebx
    19f1:	83 ec 4c             	sub    $0x4c,%esp
    19f4:	65 a1 14 00 00 00    	mov    %gs:0x14,%eax
    19fa:	89 44 24 3c          	mov    %eax,0x3c(%esp)
    19fe:	31 c0                	xor    %eax,%eax
    1a00:	6b 44 24 60 34       	imul   $0x34,0x60(%esp),%eax
    1a05:	8b 8c 03 b4 16 c2 01 	mov    0x1c216b4(%ebx,%eax,1),%ecx
    1a0c:	8d b4 03 88 16 c2 01 	lea    0x1c21688(%ebx,%eax,1),%esi
    1a13:	89 44 24 1c          	mov    %eax,0x1c(%esp)
    1a17:	8d 44 24 28          	lea    0x28(%esp),%eax
    1a1b:	89 74 24 10          	mov    %esi,0x10(%esp)
    1a1f:	89 4c 24 18          	mov    %ecx,0x18(%esp)
    1a23:	89 44 24 14          	mov    %eax,0x14(%esp)
    1a27:	b8 60 00 00 00       	mov    $0x60,%eax
    1a2c:	e8 5f f7 ff ff       	call   1190 <create>
    1a31:	83 ec 04             	sub    $0x4,%esp
    1a34:	ff b3 c8 01 00 00    	pushl  0x1c8(%ebx)
    1a3a:	ff b3 d0 01 00 00    	pushl  0x1d0(%ebx)
    1a40:	6a 60                	push   $0x60
    1a42:	ff 16                	call   *(%esi)
    1a44:	b8 60 00 00 00       	mov    $0x60,%eax
    1a49:	e8 92 f9 ff ff       	call   13e0 <check_rotate>
    1a4e:	83 c4 10             	add    $0x10,%esp
    1a51:	85 c0                	test   %eax,%eax
    1a53:	0f 85 87 02 00 00    	jne    1ce0 <test_rotate+0x300>
    1a59:	8b ac bb 64 d3 ff ff 	mov    -0x2c9c(%ebx,%edi,4),%ebp
    1a60:	89 e8                	mov    %ebp,%eax
    1a62:	e8 29 f7 ff ff       	call   1190 <create>
    1a67:	83 ec 04             	sub    $0x4,%esp
    1a6a:	ff b3 c8 01 00 00    	pushl  0x1c8(%ebx)
    1a70:	ff b3 d0 01 00 00    	pushl  0x1d0(%ebx)
    1a76:	55                   	push   %ebp
    1a77:	ff 16                	call   *(%esi)
    1a79:	89 e8                	mov    %ebp,%eax
    1a7b:	e8 60 f9 ff ff       	call   13e0 <check_rotate>
    1a80:	83 c4 10             	add    $0x10,%esp
    1a83:	85 c0                	test   %eax,%eax
    1a85:	0f 85 75 02 00 00    	jne    1d00 <test_rotate+0x320>
    1a8b:	89 44 24 0c          	mov    %eax,0xc(%esp)
    1a8f:	8b 06                	mov    (%esi),%eax
    1a91:	89 2c 24             	mov    %ebp,(%esp)
    1a94:	89 6c 24 28          	mov    %ebp,0x28(%esp)
    1a98:	db 04 24             	fildl  (%esp)
    1a9b:	89 44 24 2c          	mov    %eax,0x2c(%esp)
    1a9f:	8b 44 24 14          	mov    0x14(%esp),%eax
    1aa3:	d8 c8                	fmul   %st(0),%st
    1aa5:	89 44 24 30          	mov    %eax,0x30(%esp)
    1aa9:	8b 83 d0 01 00 00    	mov    0x1d0(%ebx),%eax
    1aaf:	dd 1c 24             	fstpl  (%esp)
    1ab2:	89 44 24 34          	mov    %eax,0x34(%esp)
    1ab6:	8b 83 c8 01 00 00    	mov    0x1c8(%ebx),%eax
    1abc:	89 44 24 38          	mov    %eax,0x38(%esp)
    1ac0:	89 e8                	mov    %ebp,%eax
    1ac2:	e8 c9 f6 ff ff       	call   1190 <create>
    1ac7:	83 ec 08             	sub    $0x8,%esp
    1aca:	8d 44 24 34          	lea    0x34(%esp),%eax
    1ace:	50                   	push   %eax
    1acf:	8d 83 f8 b1 ff ff    	lea    -0x4e08(%ebx),%eax
    1ad5:	50                   	push   %eax
    1ad6:	e8 35 0c 00 00       	call   2710 <fcyc_v>
    1adb:	dc 74 24 10          	fdivl  0x10(%esp)
    1adf:	8b 44 24 20          	mov    0x20(%esp),%eax
    1ae3:	83 c4 10             	add    $0x10,%esp
    1ae6:	8b 54 24 0c          	mov    0xc(%esp),%edx
    1aea:	dd 5c f8 04          	fstpl  0x4(%eax,%edi,8)
    1aee:	83 c7 01             	add    $0x1,%edi
    1af1:	83 ff 05             	cmp    $0x5,%edi
    1af4:	0f 85 2d ff ff ff    	jne    1a27 <test_rotate+0x47>
    1afa:	8d 83 15 d1 ff ff    	lea    -0x2eeb(%ebx),%eax
    1b00:	83 ec 04             	sub    $0x4,%esp
    1b03:	89 d6                	mov    %edx,%esi
    1b05:	ff 74 24 1c          	pushl  0x1c(%esp)
    1b09:	8d ab 64 d3 ff ff    	lea    -0x2c9c(%ebx),%ebp
    1b0f:	8d bb 31 d1 ff ff    	lea    -0x2ecf(%ebx),%edi
    1b15:	50                   	push   %eax
    1b16:	6a 01                	push   $0x1
    1b18:	e8 93 ed ff ff       	call   8b0 <__printf_chk@plt>
    1b1d:	58                   	pop    %eax
    1b1e:	8d 83 2c d1 ff ff    	lea    -0x2ed4(%ebx),%eax
    1b24:	5a                   	pop    %edx
    1b25:	50                   	push   %eax
    1b26:	6a 01                	push   $0x1
    1b28:	e8 83 ed ff ff       	call   8b0 <__printf_chk@plt>
    1b2d:	8d 8b 78 d3 ff ff    	lea    -0x2c88(%ebx),%ecx
    1b33:	83 c4 10             	add    $0x10,%esp
    1b36:	89 34 24             	mov    %esi,(%esp)
    1b39:	b8 40 00 00 00       	mov    $0x40,%eax
    1b3e:	89 ee                	mov    %ebp,%esi
    1b40:	89 fd                	mov    %edi,%ebp
    1b42:	89 cf                	mov    %ecx,%edi
    1b44:	83 ec 04             	sub    $0x4,%esp
    1b47:	83 c6 04             	add    $0x4,%esi
    1b4a:	50                   	push   %eax
    1b4b:	55                   	push   %ebp
    1b4c:	6a 01                	push   $0x1
    1b4e:	e8 5d ed ff ff       	call   8b0 <__printf_chk@plt>
    1b53:	83 c4 10             	add    $0x10,%esp
    1b56:	39 fe                	cmp    %edi,%esi
    1b58:	74 06                	je     1b60 <test_rotate+0x180>
    1b5a:	8b 06                	mov    (%esi),%eax
    1b5c:	eb e6                	jmp    1b44 <test_rotate+0x164>
    1b5e:	66 90                	xchg   %ax,%ax
    1b60:	8d 83 35 d1 ff ff    	lea    -0x2ecb(%ebx),%eax
    1b66:	8b 34 24             	mov    (%esp),%esi
    1b69:	83 ec 0c             	sub    $0xc,%esp
    1b6c:	50                   	push   %eax
    1b6d:	e8 ae ec ff ff       	call   820 <puts@plt>
    1b72:	5f                   	pop    %edi
    1b73:	8d 83 3b d1 ff ff    	lea    -0x2ec5(%ebx),%eax
    1b79:	8d bb 45 d1 ff ff    	lea    -0x2ebb(%ebx),%edi
    1b7f:	5d                   	pop    %ebp
    1b80:	50                   	push   %eax
    1b81:	6a 01                	push   $0x1
    1b83:	e8 28 ed ff ff       	call   8b0 <__printf_chk@plt>
    1b88:	83 c4 10             	add    $0x10,%esp
    1b8b:	8b 6c 24 10          	mov    0x10(%esp),%ebp
    1b8f:	ff 74 f5 08          	pushl  0x8(%ebp,%esi,8)
    1b93:	ff 74 f5 04          	pushl  0x4(%ebp,%esi,8)
    1b97:	83 c6 01             	add    $0x1,%esi
    1b9a:	57                   	push   %edi
    1b9b:	6a 01                	push   $0x1
    1b9d:	e8 0e ed ff ff       	call   8b0 <__printf_chk@plt>
    1ba2:	83 c4 10             	add    $0x10,%esp
    1ba5:	83 fe 05             	cmp    $0x5,%esi
    1ba8:	75 e5                	jne    1b8f <test_rotate+0x1af>
    1baa:	83 ec 0c             	sub    $0xc,%esp
    1bad:	8d ab 28 d3 ff ff    	lea    -0x2cd8(%ebx),%ebp
    1bb3:	6a 0a                	push   $0xa
    1bb5:	e8 d6 ec ff ff       	call   890 <putchar@plt>
    1bba:	59                   	pop    %ecx
    1bbb:	8d 83 4b d1 ff ff    	lea    -0x2eb5(%ebx),%eax
    1bc1:	5e                   	pop    %esi
    1bc2:	50                   	push   %eax
    1bc3:	6a 01                	push   $0x1
    1bc5:	8d b3 50 d3 ff ff    	lea    -0x2cb0(%ebx),%esi
    1bcb:	e8 e0 ec ff ff       	call   8b0 <__printf_chk@plt>
    1bd0:	dd 83 78 d3 ff ff    	fldl   -0x2c88(%ebx)
    1bd6:	83 c4 10             	add    $0x10,%esp
    1bd9:	83 ec 08             	sub    $0x8,%esp
    1bdc:	83 c5 08             	add    $0x8,%ebp
    1bdf:	dd 1c 24             	fstpl  (%esp)
    1be2:	57                   	push   %edi
    1be3:	6a 01                	push   $0x1
    1be5:	e8 c6 ec ff ff       	call   8b0 <__printf_chk@plt>
    1bea:	83 c4 10             	add    $0x10,%esp
    1bed:	39 ee                	cmp    %ebp,%esi
    1bef:	74 0f                	je     1c00 <test_rotate+0x220>
    1bf1:	dd 45 00             	fldl   0x0(%ebp)
    1bf4:	eb e3                	jmp    1bd9 <test_rotate+0x1f9>
    1bf6:	8d 76 00             	lea    0x0(%esi),%esi
    1bf9:	8d bc 27 00 00 00 00 	lea    0x0(%edi,%eiz,1),%edi
    1c00:	83 ec 0c             	sub    $0xc,%esp
    1c03:	31 f6                	xor    %esi,%esi
    1c05:	6a 0a                	push   $0xa
    1c07:	e8 84 ec ff ff       	call   890 <putchar@plt>
    1c0c:	58                   	pop    %eax
    1c0d:	8d 83 59 d1 ff ff    	lea    -0x2ea7(%ebx),%eax
    1c13:	5a                   	pop    %edx
    1c14:	50                   	push   %eax
    1c15:	6a 01                	push   $0x1
    1c17:	e8 94 ec ff ff       	call   8b0 <__printf_chk@plt>
    1c1c:	83 c4 10             	add    $0x10,%esp
    1c1f:	8b 6c 24 10          	mov    0x10(%esp),%ebp
    1c23:	d9 e8                	fld1   
    1c25:	d9 ee                	fldz   
    1c27:	dd 44 35 04          	fldl   0x4(%ebp,%esi,1)
    1c2b:	db e9                	fucomi %st(1),%st
    1c2d:	dd d9                	fstp   %st(1)
    1c2f:	0f 86 ce 00 00 00    	jbe    1d03 <test_rotate+0x323>
    1c35:	dc bc 33 28 d3 ff ff 	fdivrl -0x2cd8(%ebx,%esi,1)
    1c3c:	83 ec 08             	sub    $0x8,%esp
    1c3f:	83 c6 08             	add    $0x8,%esi
    1c42:	dc c9                	fmul   %st,%st(1)
    1c44:	d9 c9                	fxch   %st(1)
    1c46:	dd 5c 24 08          	fstpl  0x8(%esp)
    1c4a:	dd 1c 24             	fstpl  (%esp)
    1c4d:	57                   	push   %edi
    1c4e:	6a 01                	push   $0x1
    1c50:	e8 5b ec ff ff       	call   8b0 <__printf_chk@plt>
    1c55:	83 c4 10             	add    $0x10,%esp
    1c58:	83 fe 28             	cmp    $0x28,%esi
    1c5b:	dd 04 24             	fldl   (%esp)
    1c5e:	75 c5                	jne    1c25 <test_rotate+0x245>
    1c60:	68 99 99 c9 3f       	push   $0x3fc99999
    1c65:	68 9a 99 99 99       	push   $0x9999999a
    1c6a:	83 ec 08             	sub    $0x8,%esp
    1c6d:	dd 1c 24             	fstpl  (%esp)
    1c70:	e8 6b eb ff ff       	call   7e0 <pow@plt>
    1c75:	83 ec 08             	sub    $0x8,%esp
    1c78:	dd 14 24             	fstl   (%esp)
    1c7b:	dd 5c 24 18          	fstpl  0x18(%esp)
    1c7f:	57                   	push   %edi
    1c80:	6a 01                	push   $0x1
    1c82:	e8 29 ec ff ff       	call   8b0 <__printf_chk@plt>
    1c87:	8d 83 69 d2 ff ff    	lea    -0x2d97(%ebx),%eax
    1c8d:	83 c4 14             	add    $0x14,%esp
    1c90:	50                   	push   %eax
    1c91:	e8 8a eb ff ff       	call   820 <puts@plt>
    1c96:	dd 83 c0 01 00 00    	fldl   0x1c0(%ebx)
    1c9c:	83 c4 10             	add    $0x10,%esp
    1c9f:	dd 04 24             	fldl   (%esp)
    1ca2:	db e9                	fucomi %st(1),%st
    1ca4:	dd d9                	fstp   %st(1)
    1ca6:	76 20                	jbe    1cc8 <test_rotate+0x2e8>
    1ca8:	6b 44 24 60 34       	imul   $0x34,0x60(%esp),%eax
    1cad:	dd 9b c0 01 00 00    	fstpl  0x1c0(%ebx)
    1cb3:	8b 84 03 b4 16 c2 01 	mov    0x1c216b4(%ebx,%eax,1),%eax
    1cba:	89 83 b8 01 00 00    	mov    %eax,0x1b8(%ebx)
    1cc0:	eb 08                	jmp    1cca <test_rotate+0x2ea>
    1cc2:	8d b6 00 00 00 00    	lea    0x0(%esi),%esi
    1cc8:	dd d8                	fstp   %st(0)
    1cca:	8b 44 24 3c          	mov    0x3c(%esp),%eax
    1cce:	65 33 05 14 00 00 00 	xor    %gs:0x14,%eax
    1cd5:	75 4b                	jne    1d22 <test_rotate+0x342>
    1cd7:	83 c4 4c             	add    $0x4c,%esp
    1cda:	5b                   	pop    %ebx
    1cdb:	5e                   	pop    %esi
    1cdc:	5f                   	pop    %edi
    1cdd:	5d                   	pop    %ebp
    1cde:	c3                   	ret    
    1cdf:	90                   	nop
    1ce0:	6a 60                	push   $0x60
    1ce2:	8b 44 24 20          	mov    0x20(%esp),%eax
    1ce6:	ff b4 03 b4 16 c2 01 	pushl  0x1c216b4(%ebx,%eax,1)
    1ced:	8d 83 34 cf ff ff    	lea    -0x30cc(%ebx),%eax
    1cf3:	50                   	push   %eax
    1cf4:	6a 01                	push   $0x1
    1cf6:	e8 b5 eb ff ff       	call   8b0 <__printf_chk@plt>
    1cfb:	83 c4 10             	add    $0x10,%esp
    1cfe:	eb ca                	jmp    1cca <test_rotate+0x2ea>
    1d00:	55                   	push   %ebp
    1d01:	eb df                	jmp    1ce2 <test_rotate+0x302>
    1d03:	dd d8                	fstp   %st(0)
    1d05:	dd d8                	fstp   %st(0)
    1d07:	8d 83 70 cf ff ff    	lea    -0x3090(%ebx),%eax
    1d0d:	83 ec 0c             	sub    $0xc,%esp
    1d10:	50                   	push   %eax
    1d11:	e8 0a eb ff ff       	call   820 <puts@plt>
    1d16:	c7 04 24 01 00 00 00 	movl   $0x1,(%esp)
    1d1d:	e8 1e eb ff ff       	call   840 <exit@plt>
    1d22:	e8 f9 0f 00 00       	call   2d20 <__stack_chk_fail_local>
    1d27:	89 f6                	mov    %esi,%esi
    1d29:	8d bc 27 00 00 00 00 	lea    0x0(%edi,%eiz,1),%edi

00001d30 <run_smooth_benchmark>:
    1d30:	83 ec 10             	sub    $0x10,%esp
    1d33:	6b 54 24 14 34       	imul   $0x34,0x14(%esp),%edx
    1d38:	e8 1e 04 00 00       	call   215b <__x86.get_pc_thunk.ax>
    1d3d:	05 3b 42 00 00       	add    $0x423b,%eax
    1d42:	ff b0 c8 01 00 00    	pushl  0x1c8(%eax)
    1d48:	ff b0 d0 01 00 00    	pushl  0x1d0(%eax)
    1d4e:	ff 74 24 20          	pushl  0x20(%esp)
    1d52:	ff 94 10 28 02 c2 01 	call   *0x1c20228(%eax,%edx,1)
    1d59:	83 c4 1c             	add    $0x1c,%esp
    1d5c:	c3                   	ret    
    1d5d:	8d 76 00             	lea    0x0(%esi),%esi

00001d60 <test_smooth>:
    1d60:	55                   	push   %ebp
    1d61:	57                   	push   %edi
    1d62:	31 ff                	xor    %edi,%edi
    1d64:	56                   	push   %esi
    1d65:	53                   	push   %ebx
    1d66:	e8 05 f3 ff ff       	call   1070 <__x86.get_pc_thunk.bx>
    1d6b:	81 c3 0d 42 00 00    	add    $0x420d,%ebx
    1d71:	83 ec 4c             	sub    $0x4c,%esp
    1d74:	65 a1 14 00 00 00    	mov    %gs:0x14,%eax
    1d7a:	89 44 24 3c          	mov    %eax,0x3c(%esp)
    1d7e:	31 c0                	xor    %eax,%eax
    1d80:	6b 44 24 60 34       	imul   $0x34,0x60(%esp),%eax
    1d85:	8b 8c 03 54 02 c2 01 	mov    0x1c20254(%ebx,%eax,1),%ecx
    1d8c:	8d b4 03 28 02 c2 01 	lea    0x1c20228(%ebx,%eax,1),%esi
    1d93:	89 44 24 1c          	mov    %eax,0x1c(%esp)
    1d97:	8d 44 24 28          	lea    0x28(%esp),%eax
    1d9b:	89 74 24 10          	mov    %esi,0x10(%esp)
    1d9f:	89 4c 24 18          	mov    %ecx,0x18(%esp)
    1da3:	89 44 24 14          	mov    %eax,0x14(%esp)
    1da7:	b8 60 00 00 00       	mov    $0x60,%eax
    1dac:	e8 df f3 ff ff       	call   1190 <create>
    1db1:	83 ec 04             	sub    $0x4,%esp
    1db4:	ff b3 c8 01 00 00    	pushl  0x1c8(%ebx)
    1dba:	ff b3 d0 01 00 00    	pushl  0x1d0(%ebx)
    1dc0:	6a 60                	push   $0x60
    1dc2:	ff 16                	call   *(%esi)
    1dc4:	b8 60 00 00 00       	mov    $0x60,%eax
    1dc9:	e8 42 f8 ff ff       	call   1610 <check_smooth>
    1dce:	83 c4 10             	add    $0x10,%esp
    1dd1:	85 c0                	test   %eax,%eax
    1dd3:	0f 85 87 02 00 00    	jne    2060 <test_smooth+0x300>
    1dd9:	8b ac bb 50 d3 ff ff 	mov    -0x2cb0(%ebx,%edi,4),%ebp
    1de0:	89 e8                	mov    %ebp,%eax
    1de2:	e8 a9 f3 ff ff       	call   1190 <create>
    1de7:	83 ec 04             	sub    $0x4,%esp
    1dea:	ff b3 c8 01 00 00    	pushl  0x1c8(%ebx)
    1df0:	ff b3 d0 01 00 00    	pushl  0x1d0(%ebx)
    1df6:	55                   	push   %ebp
    1df7:	ff 16                	call   *(%esi)
    1df9:	89 e8                	mov    %ebp,%eax
    1dfb:	e8 10 f8 ff ff       	call   1610 <check_smooth>
    1e00:	83 c4 10             	add    $0x10,%esp
    1e03:	85 c0                	test   %eax,%eax
    1e05:	0f 85 75 02 00 00    	jne    2080 <test_smooth+0x320>
    1e0b:	89 44 24 0c          	mov    %eax,0xc(%esp)
    1e0f:	8b 06                	mov    (%esi),%eax
    1e11:	89 2c 24             	mov    %ebp,(%esp)
    1e14:	89 6c 24 28          	mov    %ebp,0x28(%esp)
    1e18:	db 04 24             	fildl  (%esp)
    1e1b:	89 44 24 2c          	mov    %eax,0x2c(%esp)
    1e1f:	8b 44 24 14          	mov    0x14(%esp),%eax
    1e23:	d8 c8                	fmul   %st(0),%st
    1e25:	89 44 24 30          	mov    %eax,0x30(%esp)
    1e29:	8b 83 d0 01 00 00    	mov    0x1d0(%ebx),%eax
    1e2f:	dd 1c 24             	fstpl  (%esp)
    1e32:	89 44 24 34          	mov    %eax,0x34(%esp)
    1e36:	8b 83 c8 01 00 00    	mov    0x1c8(%ebx),%eax
    1e3c:	89 44 24 38          	mov    %eax,0x38(%esp)
    1e40:	89 e8                	mov    %ebp,%eax
    1e42:	e8 49 f3 ff ff       	call   1190 <create>
    1e47:	83 ec 08             	sub    $0x8,%esp
    1e4a:	8d 44 24 34          	lea    0x34(%esp),%eax
    1e4e:	50                   	push   %eax
    1e4f:	8d 83 f8 b1 ff ff    	lea    -0x4e08(%ebx),%eax
    1e55:	50                   	push   %eax
    1e56:	e8 b5 08 00 00       	call   2710 <fcyc_v>
    1e5b:	dc 74 24 10          	fdivl  0x10(%esp)
    1e5f:	8b 44 24 20          	mov    0x20(%esp),%eax
    1e63:	83 c4 10             	add    $0x10,%esp
    1e66:	8b 54 24 0c          	mov    0xc(%esp),%edx
    1e6a:	dd 5c f8 04          	fstpl  0x4(%eax,%edi,8)
    1e6e:	83 c7 01             	add    $0x1,%edi
    1e71:	83 ff 05             	cmp    $0x5,%edi
    1e74:	0f 85 2d ff ff ff    	jne    1da7 <test_smooth+0x47>
    1e7a:	8d 83 62 d1 ff ff    	lea    -0x2e9e(%ebx),%eax
    1e80:	83 ec 04             	sub    $0x4,%esp
    1e83:	89 d6                	mov    %edx,%esi
    1e85:	ff 74 24 1c          	pushl  0x1c(%esp)
    1e89:	8d ab 50 d3 ff ff    	lea    -0x2cb0(%ebx),%ebp
    1e8f:	8d bb 31 d1 ff ff    	lea    -0x2ecf(%ebx),%edi
    1e95:	50                   	push   %eax
    1e96:	6a 01                	push   $0x1
    1e98:	e8 13 ea ff ff       	call   8b0 <__printf_chk@plt>
    1e9d:	58                   	pop    %eax
    1e9e:	8d 83 2c d1 ff ff    	lea    -0x2ed4(%ebx),%eax
    1ea4:	5a                   	pop    %edx
    1ea5:	50                   	push   %eax
    1ea6:	6a 01                	push   $0x1
    1ea8:	e8 03 ea ff ff       	call   8b0 <__printf_chk@plt>
    1ead:	8d 8b 64 d3 ff ff    	lea    -0x2c9c(%ebx),%ecx
    1eb3:	83 c4 10             	add    $0x10,%esp
    1eb6:	89 34 24             	mov    %esi,(%esp)
    1eb9:	b8 20 00 00 00       	mov    $0x20,%eax
    1ebe:	89 ee                	mov    %ebp,%esi
    1ec0:	89 fd                	mov    %edi,%ebp
    1ec2:	89 cf                	mov    %ecx,%edi
    1ec4:	83 ec 04             	sub    $0x4,%esp
    1ec7:	83 c6 04             	add    $0x4,%esi
    1eca:	50                   	push   %eax
    1ecb:	55                   	push   %ebp
    1ecc:	6a 01                	push   $0x1
    1ece:	e8 dd e9 ff ff       	call   8b0 <__printf_chk@plt>
    1ed3:	83 c4 10             	add    $0x10,%esp
    1ed6:	39 fe                	cmp    %edi,%esi
    1ed8:	74 06                	je     1ee0 <test_smooth+0x180>
    1eda:	8b 06                	mov    (%esi),%eax
    1edc:	eb e6                	jmp    1ec4 <test_smooth+0x164>
    1ede:	66 90                	xchg   %ax,%ax
    1ee0:	8d 83 35 d1 ff ff    	lea    -0x2ecb(%ebx),%eax
    1ee6:	8b 34 24             	mov    (%esp),%esi
    1ee9:	83 ec 0c             	sub    $0xc,%esp
    1eec:	50                   	push   %eax
    1eed:	e8 2e e9 ff ff       	call   820 <puts@plt>
    1ef2:	5f                   	pop    %edi
    1ef3:	8d 83 3b d1 ff ff    	lea    -0x2ec5(%ebx),%eax
    1ef9:	8d bb 45 d1 ff ff    	lea    -0x2ebb(%ebx),%edi
    1eff:	5d                   	pop    %ebp
    1f00:	50                   	push   %eax
    1f01:	6a 01                	push   $0x1
    1f03:	e8 a8 e9 ff ff       	call   8b0 <__printf_chk@plt>
    1f08:	83 c4 10             	add    $0x10,%esp
    1f0b:	8b 6c 24 10          	mov    0x10(%esp),%ebp
    1f0f:	ff 74 f5 08          	pushl  0x8(%ebp,%esi,8)
    1f13:	ff 74 f5 04          	pushl  0x4(%ebp,%esi,8)
    1f17:	83 c6 01             	add    $0x1,%esi
    1f1a:	57                   	push   %edi
    1f1b:	6a 01                	push   $0x1
    1f1d:	e8 8e e9 ff ff       	call   8b0 <__printf_chk@plt>
    1f22:	83 c4 10             	add    $0x10,%esp
    1f25:	83 fe 05             	cmp    $0x5,%esi
    1f28:	75 e5                	jne    1f0f <test_smooth+0x1af>
    1f2a:	83 ec 0c             	sub    $0xc,%esp
    1f2d:	8d ab e8 d2 ff ff    	lea    -0x2d18(%ebx),%ebp
    1f33:	6a 0a                	push   $0xa
    1f35:	e8 56 e9 ff ff       	call   890 <putchar@plt>
    1f3a:	59                   	pop    %ecx
    1f3b:	8d 83 4b d1 ff ff    	lea    -0x2eb5(%ebx),%eax
    1f41:	5e                   	pop    %esi
    1f42:	50                   	push   %eax
    1f43:	6a 01                	push   $0x1
    1f45:	8d b3 10 d3 ff ff    	lea    -0x2cf0(%ebx),%esi
    1f4b:	e8 60 e9 ff ff       	call   8b0 <__printf_chk@plt>
    1f50:	d9 83 80 d3 ff ff    	flds   -0x2c80(%ebx)
    1f56:	83 c4 10             	add    $0x10,%esp
    1f59:	83 ec 08             	sub    $0x8,%esp
    1f5c:	83 c5 08             	add    $0x8,%ebp
    1f5f:	dd 1c 24             	fstpl  (%esp)
    1f62:	57                   	push   %edi
    1f63:	6a 01                	push   $0x1
    1f65:	e8 46 e9 ff ff       	call   8b0 <__printf_chk@plt>
    1f6a:	83 c4 10             	add    $0x10,%esp
    1f6d:	39 ee                	cmp    %ebp,%esi
    1f6f:	74 0f                	je     1f80 <test_smooth+0x220>
    1f71:	dd 45 00             	fldl   0x0(%ebp)
    1f74:	eb e3                	jmp    1f59 <test_smooth+0x1f9>
    1f76:	8d 76 00             	lea    0x0(%esi),%esi
    1f79:	8d bc 27 00 00 00 00 	lea    0x0(%edi,%eiz,1),%edi
    1f80:	83 ec 0c             	sub    $0xc,%esp
    1f83:	31 f6                	xor    %esi,%esi
    1f85:	6a 0a                	push   $0xa
    1f87:	e8 04 e9 ff ff       	call   890 <putchar@plt>
    1f8c:	58                   	pop    %eax
    1f8d:	8d 83 59 d1 ff ff    	lea    -0x2ea7(%ebx),%eax
    1f93:	5a                   	pop    %edx
    1f94:	50                   	push   %eax
    1f95:	6a 01                	push   $0x1
    1f97:	e8 14 e9 ff ff       	call   8b0 <__printf_chk@plt>
    1f9c:	83 c4 10             	add    $0x10,%esp
    1f9f:	8b 6c 24 10          	mov    0x10(%esp),%ebp
    1fa3:	d9 e8                	fld1   
    1fa5:	d9 ee                	fldz   
    1fa7:	dd 44 35 04          	fldl   0x4(%ebp,%esi,1)
    1fab:	db e9                	fucomi %st(1),%st
    1fad:	dd d9                	fstp   %st(1)
    1faf:	0f 86 ce 00 00 00    	jbe    2083 <test_smooth+0x323>
    1fb5:	dc bc 33 e8 d2 ff ff 	fdivrl -0x2d18(%ebx,%esi,1)
    1fbc:	83 ec 08             	sub    $0x8,%esp
    1fbf:	83 c6 08             	add    $0x8,%esi
    1fc2:	dc c9                	fmul   %st,%st(1)
    1fc4:	d9 c9                	fxch   %st(1)
    1fc6:	dd 5c 24 08          	fstpl  0x8(%esp)
    1fca:	dd 1c 24             	fstpl  (%esp)
    1fcd:	57                   	push   %edi
    1fce:	6a 01                	push   $0x1
    1fd0:	e8 db e8 ff ff       	call   8b0 <__printf_chk@plt>
    1fd5:	83 c4 10             	add    $0x10,%esp
    1fd8:	83 fe 28             	cmp    $0x28,%esi
    1fdb:	dd 04 24             	fldl   (%esp)
    1fde:	75 c5                	jne    1fa5 <test_smooth+0x245>
    1fe0:	68 99 99 c9 3f       	push   $0x3fc99999
    1fe5:	68 9a 99 99 99       	push   $0x9999999a
    1fea:	83 ec 08             	sub    $0x8,%esp
    1fed:	dd 1c 24             	fstpl  (%esp)
    1ff0:	e8 eb e7 ff ff       	call   7e0 <pow@plt>
    1ff5:	83 ec 08             	sub    $0x8,%esp
    1ff8:	dd 14 24             	fstl   (%esp)
    1ffb:	dd 5c 24 18          	fstpl  0x18(%esp)
    1fff:	57                   	push   %edi
    2000:	6a 01                	push   $0x1
    2002:	e8 a9 e8 ff ff       	call   8b0 <__printf_chk@plt>
    2007:	8d 83 69 d2 ff ff    	lea    -0x2d97(%ebx),%eax
    200d:	83 c4 14             	add    $0x14,%esp
    2010:	50                   	push   %eax
    2011:	e8 0a e8 ff ff       	call   820 <puts@plt>
    2016:	dd 83 b0 01 00 00    	fldl   0x1b0(%ebx)
    201c:	83 c4 10             	add    $0x10,%esp
    201f:	dd 04 24             	fldl   (%esp)
    2022:	db e9                	fucomi %st(1),%st
    2024:	dd d9                	fstp   %st(1)
    2026:	76 20                	jbe    2048 <test_smooth+0x2e8>
    2028:	6b 44 24 60 34       	imul   $0x34,0x60(%esp),%eax
    202d:	dd 9b b0 01 00 00    	fstpl  0x1b0(%ebx)
    2033:	8b 84 03 54 02 c2 01 	mov    0x1c20254(%ebx,%eax,1),%eax
    203a:	89 83 a8 01 00 00    	mov    %eax,0x1a8(%ebx)
    2040:	eb 08                	jmp    204a <test_smooth+0x2ea>
    2042:	8d b6 00 00 00 00    	lea    0x0(%esi),%esi
    2048:	dd d8                	fstp   %st(0)
    204a:	8b 44 24 3c          	mov    0x3c(%esp),%eax
    204e:	65 33 05 14 00 00 00 	xor    %gs:0x14,%eax
    2055:	75 4b                	jne    20a2 <test_smooth+0x342>
    2057:	83 c4 4c             	add    $0x4c,%esp
    205a:	5b                   	pop    %ebx
    205b:	5e                   	pop    %esi
    205c:	5f                   	pop    %edi
    205d:	5d                   	pop    %ebp
    205e:	c3                   	ret    
    205f:	90                   	nop
    2060:	6a 60                	push   $0x60
    2062:	8b 44 24 20          	mov    0x20(%esp),%eax
    2066:	ff b4 03 54 02 c2 01 	pushl  0x1c20254(%ebx,%eax,1)
    206d:	8d 83 34 cf ff ff    	lea    -0x30cc(%ebx),%eax
    2073:	50                   	push   %eax
    2074:	6a 01                	push   $0x1
    2076:	e8 35 e8 ff ff       	call   8b0 <__printf_chk@plt>
    207b:	83 c4 10             	add    $0x10,%esp
    207e:	eb ca                	jmp    204a <test_smooth+0x2ea>
    2080:	55                   	push   %ebp
    2081:	eb df                	jmp    2062 <test_smooth+0x302>
    2083:	dd d8                	fstp   %st(0)
    2085:	dd d8                	fstp   %st(0)
    2087:	8d 83 70 cf ff ff    	lea    -0x3090(%ebx),%eax
    208d:	83 ec 0c             	sub    $0xc,%esp
    2090:	50                   	push   %eax
    2091:	e8 8a e7 ff ff       	call   820 <puts@plt>
    2096:	c7 04 24 01 00 00 00 	movl   $0x1,(%esp)
    209d:	e8 9e e7 ff ff       	call   840 <exit@plt>
    20a2:	e8 79 0c 00 00       	call   2d20 <__stack_chk_fail_local>
    20a7:	89 f6                	mov    %esi,%esi
    20a9:	8d bc 27 00 00 00 00 	lea    0x0(%edi,%eiz,1),%edi

000020b0 <usage>:
    20b0:	56                   	push   %esi
    20b1:	53                   	push   %ebx
    20b2:	e8 b9 ef ff ff       	call   1070 <__x86.get_pc_thunk.bx>
    20b7:	81 c3 c1 3e 00 00    	add    $0x3ec1,%ebx
    20bd:	83 ec 04             	sub    $0x4,%esp
    20c0:	8b b3 70 00 00 00    	mov    0x70(%ebx),%esi
    20c6:	8d 83 98 cf ff ff    	lea    -0x3068(%ebx),%eax
    20cc:	ff 74 24 10          	pushl  0x10(%esp)
    20d0:	50                   	push   %eax
    20d1:	6a 01                	push   $0x1
    20d3:	ff 36                	pushl  (%esi)
    20d5:	e8 e6 e7 ff ff       	call   8c0 <__fprintf_chk@plt>
    20da:	8d 83 79 d1 ff ff    	lea    -0x2e87(%ebx),%eax
    20e0:	ff 36                	pushl  (%esi)
    20e2:	6a 09                	push   $0x9
    20e4:	6a 01                	push   $0x1
    20e6:	50                   	push   %eax
    20e7:	e8 14 e7 ff ff       	call   800 <fwrite@plt>
    20ec:	8d 83 cc cf ff ff    	lea    -0x3034(%ebx),%eax
    20f2:	83 c4 20             	add    $0x20,%esp
    20f5:	ff 36                	pushl  (%esi)
    20f7:	6a 20                	push   $0x20
    20f9:	6a 01                	push   $0x1
    20fb:	50                   	push   %eax
    20fc:	e8 ff e6 ff ff       	call   800 <fwrite@plt>
    2101:	8d 83 f0 cf ff ff    	lea    -0x3010(%ebx),%eax
    2107:	ff 36                	pushl  (%esi)
    2109:	6a 2f                	push   $0x2f
    210b:	6a 01                	push   $0x1
    210d:	50                   	push   %eax
    210e:	e8 ed e6 ff ff       	call   800 <fwrite@plt>
    2113:	8d 83 20 d0 ff ff    	lea    -0x2fe0(%ebx),%eax
    2119:	83 c4 20             	add    $0x20,%esp
    211c:	ff 36                	pushl  (%esi)
    211e:	6a 40                	push   $0x40
    2120:	6a 01                	push   $0x1
    2122:	50                   	push   %eax
    2123:	e8 d8 e6 ff ff       	call   800 <fwrite@plt>
    2128:	8d 83 64 d0 ff ff    	lea    -0x2f9c(%ebx),%eax
    212e:	ff 36                	pushl  (%esi)
    2130:	6a 3b                	push   $0x3b
    2132:	6a 01                	push   $0x1
    2134:	50                   	push   %eax
    2135:	e8 c6 e6 ff ff       	call   800 <fwrite@plt>
    213a:	8d 83 a0 d0 ff ff    	lea    -0x2f60(%ebx),%eax
    2140:	83 c4 20             	add    $0x20,%esp
    2143:	ff 36                	pushl  (%esi)
    2145:	6a 3b                	push   $0x3b
    2147:	6a 01                	push   $0x1
    2149:	50                   	push   %eax
    214a:	e8 b1 e6 ff ff       	call   800 <fwrite@plt>
    214f:	c7 04 24 01 00 00 00 	movl   $0x1,(%esp)
    2156:	e8 e5 e6 ff ff       	call   840 <exit@plt>

0000215b <__x86.get_pc_thunk.ax>:
    215b:	8b 04 24             	mov    (%esp),%eax
    215e:	c3                   	ret    

0000215f <__x86.get_pc_thunk.si>:
    215f:	8b 34 24             	mov    (%esp),%esi
    2162:	c3                   	ret    

00002163 <__x86.get_pc_thunk.di>:
    2163:	8b 3c 24             	mov    (%esp),%edi
    2166:	c3                   	ret    
    2167:	66 90                	xchg   %ax,%ax
    2169:	66 90                	xchg   %ax,%ax
    216b:	66 90                	xchg   %ax,%ax
    216d:	66 90                	xchg   %ax,%ax
    216f:	90                   	nop

00002170 <naive_rotate>:
    2170:	55                   	push   %ebp
    2171:	57                   	push   %edi
    2172:	56                   	push   %esi
    2173:	53                   	push   %ebx
    2174:	83 ec 04             	sub    $0x4,%esp
    2177:	8b 4c 24 18          	mov    0x18(%esp),%ecx
    217b:	8b 5c 24 20          	mov    0x20(%esp),%ebx
    217f:	85 c9                	test   %ecx,%ecx
    2181:	7e 4c                	jle    21cf <naive_rotate+0x5f>
    2183:	8d 51 ff             	lea    -0x1(%ecx),%edx
    2186:	8d 3c 49             	lea    (%ecx,%ecx,2),%edi
    2189:	8b 44 24 1c          	mov    0x1c(%esp),%eax
    218d:	0f af d1             	imul   %ecx,%edx
    2190:	01 ff                	add    %edi,%edi
    2192:	8d 34 52             	lea    (%edx,%edx,2),%esi
    2195:	01 ca                	add    %ecx,%edx
    2197:	8d 14 52             	lea    (%edx,%edx,2),%edx
    219a:	6b c9 fa             	imul   $0xfffffffa,%ecx,%ecx
    219d:	8d 34 73             	lea    (%ebx,%esi,2),%esi
    21a0:	8d 2c 53             	lea    (%ebx,%edx,2),%ebp
    21a3:	90                   	nop
    21a4:	8d 74 26 00          	lea    0x0(%esi,%eiz,1),%esi
    21a8:	8d 1c 07             	lea    (%edi,%eax,1),%ebx
    21ab:	89 f2                	mov    %esi,%edx
    21ad:	89 34 24             	mov    %esi,(%esp)
    21b0:	8b 30                	mov    (%eax),%esi
    21b2:	83 c0 06             	add    $0x6,%eax
    21b5:	89 32                	mov    %esi,(%edx)
    21b7:	0f b7 70 fe          	movzwl -0x2(%eax),%esi
    21bb:	66 89 72 04          	mov    %si,0x4(%edx)
    21bf:	01 ca                	add    %ecx,%edx
    21c1:	39 d8                	cmp    %ebx,%eax
    21c3:	75 eb                	jne    21b0 <naive_rotate+0x40>
    21c5:	8b 34 24             	mov    (%esp),%esi
    21c8:	83 c6 06             	add    $0x6,%esi
    21cb:	39 ee                	cmp    %ebp,%esi
    21cd:	75 d9                	jne    21a8 <naive_rotate+0x38>
    21cf:	83 c4 04             	add    $0x4,%esp
    21d2:	5b                   	pop    %ebx
    21d3:	5e                   	pop    %esi
    21d4:	5f                   	pop    %edi
    21d5:	5d                   	pop    %ebp
    21d6:	c3                   	ret    
    21d7:	89 f6                	mov    %esi,%esi
    21d9:	8d bc 27 00 00 00 00 	lea    0x0(%edi,%eiz,1),%edi

000021e0 <rotate>:
    21e0:	eb 8e                	jmp    2170 <naive_rotate>
    21e2:	8d b4 26 00 00 00 00 	lea    0x0(%esi,%eiz,1),%esi
    21e9:	8d bc 27 00 00 00 00 	lea    0x0(%edi,%eiz,1),%edi

000021f0 <naive_smooth>:
    21f0:	55                   	push   %ebp
    21f1:	57                   	push   %edi
    21f2:	56                   	push   %esi
    21f3:	53                   	push   %ebx
    21f4:	83 ec 40             	sub    $0x40,%esp
    21f7:	8b 44 24 54          	mov    0x54(%esp),%eax
    21fb:	85 c0                	test   %eax,%eax
    21fd:	0f 8e 84 01 00 00    	jle    2387 <naive_smooth+0x197>
    2203:	8b 44 24 54          	mov    0x54(%esp),%eax
    2207:	c7 44 24 38 00 00 00 	movl   $0x0,0x38(%esp)
    220e:	00 
    220f:	83 e8 01             	sub    $0x1,%eax
    2212:	89 44 24 30          	mov    %eax,0x30(%esp)
    2216:	8b 44 24 54          	mov    0x54(%esp),%eax
    221a:	8d 04 40             	lea    (%eax,%eax,2),%eax
    221d:	01 c0                	add    %eax,%eax
    221f:	89 44 24 10          	mov    %eax,0x10(%esp)
    2223:	8b 44 24 5c          	mov    0x5c(%esp),%eax
    2227:	89 44 24 3c          	mov    %eax,0x3c(%esp)
    222b:	83 44 24 38 01       	addl   $0x1,0x38(%esp)
    2230:	8b 7c 24 30          	mov    0x30(%esp),%edi
    2234:	be 00 00 00 00       	mov    $0x0,%esi
    2239:	8b 5c 24 38          	mov    0x38(%esp),%ebx
    223d:	c7 44 24 20 00 00 00 	movl   $0x0,0x20(%esp)
    2244:	00 
    2245:	89 d8                	mov    %ebx,%eax
    2247:	83 e8 02             	sub    $0x2,%eax
    224a:	0f 49 f0             	cmovns %eax,%esi
    224d:	39 df                	cmp    %ebx,%edi
    224f:	89 d8                	mov    %ebx,%eax
    2251:	0f 4e c7             	cmovle %edi,%eax
    2254:	89 74 24 28          	mov    %esi,0x28(%esp)
    2258:	8b 5c 24 3c          	mov    0x3c(%esp),%ebx
    225c:	0f af 74 24 54       	imul   0x54(%esp),%esi
    2261:	89 44 24 2c          	mov    %eax,0x2c(%esp)
    2265:	83 c0 01             	add    $0x1,%eax
    2268:	89 5c 24 24          	mov    %ebx,0x24(%esp)
    226c:	89 44 24 14          	mov    %eax,0x14(%esp)
    2270:	89 74 24 34          	mov    %esi,0x34(%esp)
    2274:	8d 74 26 00          	lea    0x0(%esi,%eiz,1),%esi
    2278:	8b 5c 24 28          	mov    0x28(%esp),%ebx
    227c:	8b 44 24 2c          	mov    0x2c(%esp),%eax
    2280:	39 c3                	cmp    %eax,%ebx
    2282:	0f 8f 07 01 00 00    	jg     238f <naive_smooth+0x19f>
    2288:	83 44 24 20 01       	addl   $0x1,0x20(%esp)
    228d:	b9 00 00 00 00       	mov    $0x0,%ecx
    2292:	8b 74 24 58          	mov    0x58(%esp),%esi
    2296:	8b 7c 24 20          	mov    0x20(%esp),%edi
    229a:	89 1c 24             	mov    %ebx,(%esp)
    229d:	c7 44 24 04 00 00 00 	movl   $0x0,0x4(%esp)
    22a4:	00 
    22a5:	89 f8                	mov    %edi,%eax
    22a7:	83 e8 02             	sub    $0x2,%eax
    22aa:	0f 49 c8             	cmovns %eax,%ecx
    22ad:	8b 44 24 30          	mov    0x30(%esp),%eax
    22b1:	89 4c 24 08          	mov    %ecx,0x8(%esp)
    22b5:	39 f8                	cmp    %edi,%eax
    22b7:	0f 4e f8             	cmovle %eax,%edi
    22ba:	8b 44 24 34          	mov    0x34(%esp),%eax
    22be:	31 db                	xor    %ebx,%ebx
    22c0:	8d 57 01             	lea    0x1(%edi),%edx
    22c3:	89 7c 24 0c          	mov    %edi,0xc(%esp)
    22c7:	01 c8                	add    %ecx,%eax
    22c9:	29 ca                	sub    %ecx,%edx
    22cb:	8d 04 40             	lea    (%eax,%eax,2),%eax
    22ce:	89 54 24 1c          	mov    %edx,0x1c(%esp)
    22d2:	8d 6c 46 02          	lea    0x2(%esi,%eax,2),%ebp
    22d6:	89 f8                	mov    %edi,%eax
    22d8:	31 f6                	xor    %esi,%esi
    22da:	29 c8                	sub    %ecx,%eax
    22dc:	8d 04 40             	lea    (%eax,%eax,2),%eax
    22df:	01 c0                	add    %eax,%eax
    22e1:	89 44 24 18          	mov    %eax,0x18(%esp)
    22e5:	31 c0                	xor    %eax,%eax
    22e7:	89 f6                	mov    %esi,%esi
    22e9:	8d bc 27 00 00 00 00 	lea    0x0(%edi,%eiz,1),%edi
    22f0:	8b 54 24 0c          	mov    0xc(%esp),%edx
    22f4:	39 54 24 08          	cmp    %edx,0x8(%esp)
    22f8:	7f 2f                	jg     2329 <naive_smooth+0x139>
    22fa:	8b 7c 24 18          	mov    0x18(%esp),%edi
    22fe:	89 ea                	mov    %ebp,%edx
    2300:	8d 7c 3d 06          	lea    0x6(%ebp,%edi,1),%edi
    2304:	8d 74 26 00          	lea    0x0(%esi,%eiz,1),%esi
    2308:	0f b7 4a fe          	movzwl -0x2(%edx),%ecx
    230c:	83 c2 06             	add    $0x6,%edx
    230f:	01 c8                	add    %ecx,%eax
    2311:	0f b7 4a fa          	movzwl -0x6(%edx),%ecx
    2315:	01 ce                	add    %ecx,%esi
    2317:	0f b7 4a fc          	movzwl -0x4(%edx),%ecx
    231b:	01 cb                	add    %ecx,%ebx
    231d:	39 fa                	cmp    %edi,%edx
    231f:	75 e7                	jne    2308 <naive_smooth+0x118>
    2321:	8b 54 24 1c          	mov    0x1c(%esp),%edx
    2325:	01 54 24 04          	add    %edx,0x4(%esp)
    2329:	83 04 24 01          	addl   $0x1,(%esp)
    232d:	03 6c 24 10          	add    0x10(%esp),%ebp
    2331:	8b 3c 24             	mov    (%esp),%edi
    2334:	39 7c 24 14          	cmp    %edi,0x14(%esp)
    2338:	75 b6                	jne    22f0 <naive_smooth+0x100>
    233a:	8b 4c 24 04          	mov    0x4(%esp),%ecx
    233e:	99                   	cltd   
    233f:	8b 7c 24 24          	mov    0x24(%esp),%edi
    2343:	f7 f9                	idiv   %ecx
    2345:	66 89 07             	mov    %ax,(%edi)
    2348:	89 f0                	mov    %esi,%eax
    234a:	89 fe                	mov    %edi,%esi
    234c:	99                   	cltd   
    234d:	83 c6 06             	add    $0x6,%esi
    2350:	f7 f9                	idiv   %ecx
    2352:	89 74 24 24          	mov    %esi,0x24(%esp)
    2356:	66 89 47 02          	mov    %ax,0x2(%edi)
    235a:	89 d8                	mov    %ebx,%eax
    235c:	99                   	cltd   
    235d:	f7 f9                	idiv   %ecx
    235f:	66 89 47 04          	mov    %ax,0x4(%edi)
    2363:	8b 44 24 20          	mov    0x20(%esp),%eax
    2367:	39 44 24 54          	cmp    %eax,0x54(%esp)
    236b:	0f 85 07 ff ff ff    	jne    2278 <naive_smooth+0x88>
    2371:	8b 5c 24 10          	mov    0x10(%esp),%ebx
    2375:	8b 44 24 38          	mov    0x38(%esp),%eax
    2379:	01 5c 24 3c          	add    %ebx,0x3c(%esp)
    237d:	3b 44 24 54          	cmp    0x54(%esp),%eax
    2381:	0f 85 a4 fe ff ff    	jne    222b <naive_smooth+0x3b>
    2387:	83 c4 40             	add    $0x40,%esp
    238a:	5b                   	pop    %ebx
    238b:	5e                   	pop    %esi
    238c:	5f                   	pop    %edi
    238d:	5d                   	pop    %ebp
    238e:	c3                   	ret    
    238f:	0f 0b                	ud2    
    2391:	eb 0d                	jmp    23a0 <smooth>
    2393:	90                   	nop
    2394:	90                   	nop
    2395:	90                   	nop
    2396:	90                   	nop
    2397:	90                   	nop
    2398:	90                   	nop
    2399:	90                   	nop
    239a:	90                   	nop
    239b:	90                   	nop
    239c:	90                   	nop
    239d:	90                   	nop
    239e:	90                   	nop
    239f:	90                   	nop

000023a0 <smooth>:
    23a0:	e9 4b fe ff ff       	jmp    21f0 <naive_smooth>
    23a5:	8d 74 26 00          	lea    0x0(%esi,%eiz,1),%esi
    23a9:	8d bc 27 00 00 00 00 	lea    0x0(%edi,%eiz,1),%edi

000023b0 <register_rotate_functions>:
    23b0:	53                   	push   %ebx
    23b1:	e8 ba ec ff ff       	call   1070 <__x86.get_pc_thunk.bx>
    23b6:	81 c3 c2 3b 00 00    	add    $0x3bc2,%ebx
    23bc:	83 ec 10             	sub    $0x10,%esp
    23bf:	8d 83 28 01 00 00    	lea    0x128(%ebx),%eax
    23c5:	50                   	push   %eax
    23c6:	8d 83 f8 c1 ff ff    	lea    -0x3e08(%ebx),%eax
    23cc:	50                   	push   %eax
    23cd:	e8 9e f5 ff ff       	call   1970 <add_rotate_function>
    23d2:	58                   	pop    %eax
    23d3:	8d 83 08 01 00 00    	lea    0x108(%ebx),%eax
    23d9:	5a                   	pop    %edx
    23da:	50                   	push   %eax
    23db:	8d 83 68 c2 ff ff    	lea    -0x3d98(%ebx),%eax
    23e1:	50                   	push   %eax
    23e2:	e8 89 f5 ff ff       	call   1970 <add_rotate_function>
    23e7:	83 c4 18             	add    $0x18,%esp
    23ea:	5b                   	pop    %ebx
    23eb:	c3                   	ret    
    23ec:	8d 74 26 00          	lea    0x0(%esi,%eiz,1),%esi

000023f0 <register_smooth_functions>:
    23f0:	53                   	push   %ebx
    23f1:	e8 7a ec ff ff       	call   1070 <__x86.get_pc_thunk.bx>
    23f6:	81 c3 82 3b 00 00    	add    $0x3b82,%ebx
    23fc:	83 ec 10             	sub    $0x10,%esp
    23ff:	8d 83 a8 00 00 00    	lea    0xa8(%ebx),%eax
    2405:	50                   	push   %eax
    2406:	8d 83 28 c4 ff ff    	lea    -0x3bd8(%ebx),%eax
    240c:	50                   	push   %eax
    240d:	e8 1e f5 ff ff       	call   1930 <add_smooth_function>
    2412:	58                   	pop    %eax
    2413:	8d 83 c8 00 00 00    	lea    0xc8(%ebx),%eax
    2419:	5a                   	pop    %edx
    241a:	50                   	push   %eax
    241b:	8d 83 78 c2 ff ff    	lea    -0x3d88(%ebx),%eax
    2421:	50                   	push   %eax
    2422:	e8 09 f5 ff ff       	call   1930 <add_smooth_function>
    2427:	83 c4 18             	add    $0x18,%esp
    242a:	5b                   	pop    %ebx
    242b:	c3                   	ret    
    242c:	66 90                	xchg   %ax,%ax
    242e:	66 90                	xchg   %ax,%ax

00002430 <add_sample>:
    2430:	e8 34 ed ff ff       	call   1169 <__x86.get_pc_thunk.dx>
    2435:	81 c2 43 3b 00 00    	add    $0x3b43,%edx
    243b:	56                   	push   %esi
    243c:	53                   	push   %ebx
    243d:	8b 82 dc 2a c2 01    	mov    0x1c22adc(%edx),%eax
    2443:	8b 9a 7c 01 00 00    	mov    0x17c(%edx),%ebx
    2449:	dd 44 24 0c          	fldl   0xc(%esp)
    244d:	8b 8a e0 2a c2 01    	mov    0x1c22ae0(%edx),%ecx
    2453:	39 d8                	cmp    %ebx,%eax
    2455:	8d 70 01             	lea    0x1(%eax),%esi
    2458:	7c 0b                	jl     2465 <add_sample+0x35>
    245a:	dd 44 d9 f8          	fldl   -0x8(%ecx,%ebx,8)
    245e:	df e9                	fucomip %st(1),%st
    2460:	76 7e                	jbe    24e0 <add_sample+0xb0>
    2462:	8d 43 ff             	lea    -0x1(%ebx),%eax
    2465:	85 c0                	test   %eax,%eax
    2467:	dd 1c c1             	fstpl  (%ecx,%eax,8)
    246a:	89 b2 dc 2a c2 01    	mov    %esi,0x1c22adc(%edx)
    2470:	7e 62                	jle    24d4 <add_sample+0xa4>
    2472:	8d 14 c5 f8 ff ff ff 	lea    -0x8(,%eax,8),%edx
    2479:	8d 34 11             	lea    (%ecx,%edx,1),%esi
    247c:	8d 5c 11 08          	lea    0x8(%ecx,%edx,1),%ebx
    2480:	dd 03                	fldl   (%ebx)
    2482:	dd 06                	fldl   (%esi)
    2484:	db e9                	fucomi %st(1),%st
    2486:	76 38                	jbe    24c0 <add_sample+0x90>
    2488:	d9 c9                	fxch   %st(1)
    248a:	8d 54 11 f8          	lea    -0x8(%ecx,%edx,1),%edx
    248e:	8d 0c c5 00 00 00 00 	lea    0x0(,%eax,8),%ecx
    2495:	f7 d9                	neg    %ecx
    2497:	01 ce                	add    %ecx,%esi
    2499:	01 d9                	add    %ebx,%ecx
    249b:	eb 13                	jmp    24b0 <add_sample+0x80>
    249d:	8d 76 00             	lea    0x0(%esi),%esi
    24a0:	dd 02                	fldl   (%edx)
    24a2:	83 ea 08             	sub    $0x8,%edx
    24a5:	dd 42 10             	fldl   0x10(%edx)
    24a8:	d9 c9                	fxch   %st(1)
    24aa:	db e9                	fucomi %st(1),%st
    24ac:	76 22                	jbe    24d0 <add_sample+0xa0>
    24ae:	d9 c9                	fxch   %st(1)
    24b0:	dd 1c c6             	fstpl  (%esi,%eax,8)
    24b3:	dd 1c c1             	fstpl  (%ecx,%eax,8)
    24b6:	83 e8 01             	sub    $0x1,%eax
    24b9:	75 e5                	jne    24a0 <add_sample+0x70>
    24bb:	eb 17                	jmp    24d4 <add_sample+0xa4>
    24bd:	8d 76 00             	lea    0x0(%esi),%esi
    24c0:	dd d8                	fstp   %st(0)
    24c2:	dd d8                	fstp   %st(0)
    24c4:	eb 0e                	jmp    24d4 <add_sample+0xa4>
    24c6:	8d 76 00             	lea    0x0(%esi),%esi
    24c9:	8d bc 27 00 00 00 00 	lea    0x0(%edi,%eiz,1),%edi
    24d0:	dd d8                	fstp   %st(0)
    24d2:	dd d8                	fstp   %st(0)
    24d4:	5b                   	pop    %ebx
    24d5:	5e                   	pop    %esi
    24d6:	c3                   	ret    
    24d7:	89 f6                	mov    %esi,%esi
    24d9:	8d bc 27 00 00 00 00 	lea    0x0(%edi,%eiz,1),%edi
    24e0:	dd d8                	fstp   %st(0)
    24e2:	89 b2 dc 2a c2 01    	mov    %esi,0x1c22adc(%edx)
    24e8:	5b                   	pop    %ebx
    24e9:	5e                   	pop    %esi
    24ea:	c3                   	ret    
    24eb:	90                   	nop
    24ec:	8d 74 26 00          	lea    0x0(%esi,%eiz,1),%esi

000024f0 <has_converged>:
    24f0:	e8 74 ec ff ff       	call   1169 <__x86.get_pc_thunk.dx>
    24f5:	81 c2 83 3a 00 00    	add    $0x3a83,%edx
    24fb:	31 c0                	xor    %eax,%eax
    24fd:	8b 8a 7c 01 00 00    	mov    0x17c(%edx),%ecx
    2503:	39 8a dc 2a c2 01    	cmp    %ecx,0x1c22adc(%edx)
    2509:	7c 1f                	jl     252a <has_converged+0x3a>
    250b:	d9 e8                	fld1   
    250d:	8b 82 e0 2a c2 01    	mov    0x1c22ae0(%edx),%eax
    2513:	dc 82 70 01 00 00    	faddl  0x170(%edx)
    2519:	dc 08                	fmull  (%eax)
    251b:	dd 44 c8 f8          	fldl   -0x8(%eax,%ecx,8)
    251f:	d9 c9                	fxch   %st(1)
    2521:	31 c0                	xor    %eax,%eax
    2523:	df e9                	fucomip %st(1),%st
    2525:	dd d8                	fstp   %st(0)
    2527:	0f 93 c0             	setae  %al
    252a:	f3 c3                	repz ret 
    252c:	8d 74 26 00          	lea    0x0(%esi,%eiz,1),%esi

00002530 <init_sampler>:
    2530:	53                   	push   %ebx
    2531:	e8 3a eb ff ff       	call   1070 <__x86.get_pc_thunk.bx>
    2536:	81 c3 42 3a 00 00    	add    $0x3a42,%ebx
    253c:	83 ec 08             	sub    $0x8,%esp
    253f:	8b 83 e0 2a c2 01    	mov    0x1c22ae0(%ebx),%eax
    2545:	85 c0                	test   %eax,%eax
    2547:	74 0c                	je     2555 <init_sampler+0x25>
    2549:	83 ec 0c             	sub    $0xc,%esp
    254c:	50                   	push   %eax
    254d:	e8 3e e2 ff ff       	call   790 <free@plt>
    2552:	83 c4 10             	add    $0x10,%esp
    2555:	83 ec 08             	sub    $0x8,%esp
    2558:	6a 08                	push   $0x8
    255a:	ff b3 7c 01 00 00    	pushl  0x17c(%ebx)
    2560:	e8 7b e3 ff ff       	call   8e0 <calloc@plt>
    2565:	c7 83 dc 2a c2 01 00 	movl   $0x0,0x1c22adc(%ebx)
    256c:	00 00 00 
    256f:	89 83 e0 2a c2 01    	mov    %eax,0x1c22ae0(%ebx)
    2575:	83 c4 18             	add    $0x18,%esp
    2578:	5b                   	pop    %ebx
    2579:	c3                   	ret    
    257a:	8d b6 00 00 00 00    	lea    0x0(%esi),%esi

00002580 <clear>:
    2580:	55                   	push   %ebp
    2581:	57                   	push   %edi
    2582:	56                   	push   %esi
    2583:	53                   	push   %ebx
    2584:	e8 e7 ea ff ff       	call   1070 <__x86.get_pc_thunk.bx>
    2589:	81 c3 ef 39 00 00    	add    $0x39ef,%ebx
    258f:	83 ec 0c             	sub    $0xc,%esp
    2592:	8b 83 e4 2a c2 01    	mov    0x1c22ae4(%ebx),%eax
    2598:	8b b3 d8 2a c2 01    	mov    0x1c22ad8(%ebx),%esi
    259e:	8b ab 68 01 00 00    	mov    0x168(%ebx),%ebp
    25a4:	8b bb 6c 01 00 00    	mov    0x16c(%ebx),%edi
    25aa:	85 c0                	test   %eax,%eax
    25ac:	74 32                	je     25e0 <clear+0x60>
    25ae:	83 e7 fc             	and    $0xfffffffc,%edi
    25b1:	8d 14 38             	lea    (%eax,%edi,1),%edx
    25b4:	39 c2                	cmp    %eax,%edx
    25b6:	76 10                	jbe    25c8 <clear+0x48>
    25b8:	83 e5 fc             	and    $0xfffffffc,%ebp
    25bb:	90                   	nop
    25bc:	8d 74 26 00          	lea    0x0(%esi,%eiz,1),%esi
    25c0:	03 30                	add    (%eax),%esi
    25c2:	01 e8                	add    %ebp,%eax
    25c4:	39 c2                	cmp    %eax,%edx
    25c6:	77 f8                	ja     25c0 <clear+0x40>
    25c8:	89 b3 d8 2a c2 01    	mov    %esi,0x1c22ad8(%ebx)
    25ce:	83 c4 0c             	add    $0xc,%esp
    25d1:	5b                   	pop    %ebx
    25d2:	5e                   	pop    %esi
    25d3:	5f                   	pop    %edi
    25d4:	5d                   	pop    %ebp
    25d5:	c3                   	ret    
    25d6:	8d 76 00             	lea    0x0(%esi),%esi
    25d9:	8d bc 27 00 00 00 00 	lea    0x0(%edi,%eiz,1),%edi
    25e0:	83 ec 0c             	sub    $0xc,%esp
    25e3:	57                   	push   %edi
    25e4:	e8 27 e2 ff ff       	call   810 <malloc@plt>
    25e9:	83 c4 10             	add    $0x10,%esp
    25ec:	85 c0                	test   %eax,%eax
    25ee:	89 83 e4 2a c2 01    	mov    %eax,0x1c22ae4(%ebx)
    25f4:	75 b8                	jne    25ae <clear+0x2e>
    25f6:	8b 83 70 00 00 00    	mov    0x70(%ebx),%eax
    25fc:	ff 30                	pushl  (%eax)
    25fe:	8d 83 9c d3 ff ff    	lea    -0x2c64(%ebx),%eax
    2604:	6a 3e                	push   $0x3e
    2606:	6a 01                	push   $0x1
    2608:	50                   	push   %eax
    2609:	e8 f2 e1 ff ff       	call   800 <fwrite@plt>
    260e:	c7 04 24 01 00 00 00 	movl   $0x1,(%esp)
    2615:	e8 26 e2 ff ff       	call   840 <exit@plt>
    261a:	8d b6 00 00 00 00    	lea    0x0(%esi),%esi

00002620 <fcyc>:
    2620:	57                   	push   %edi
    2621:	56                   	push   %esi
    2622:	53                   	push   %ebx
    2623:	e8 48 ea ff ff       	call   1070 <__x86.get_pc_thunk.bx>
    2628:	81 c3 50 39 00 00    	add    $0x3950,%ebx
    262e:	83 ec 10             	sub    $0x10,%esp
    2631:	8b 7c 24 20          	mov    0x20(%esp),%edi
    2635:	8b 74 24 24          	mov    0x24(%esp),%esi
    2639:	e8 f2 fe ff ff       	call   2530 <init_sampler>
    263e:	8b 8b ec 2a c2 01    	mov    0x1c22aec(%ebx),%ecx
    2644:	85 c9                	test   %ecx,%ecx
    2646:	0f 84 83 00 00 00    	je     26cf <fcyc+0xaf>
    264c:	eb 34                	jmp    2682 <fcyc+0x62>
    264e:	66 90                	xchg   %ax,%ax
    2650:	e8 7b 04 00 00       	call   2ad0 <start_comp_counter>
    2655:	83 ec 0c             	sub    $0xc,%esp
    2658:	56                   	push   %esi
    2659:	ff d7                	call   *%edi
    265b:	e8 e0 05 00 00       	call   2c40 <get_comp_counter>
    2660:	dd 1c 24             	fstpl  (%esp)
    2663:	e8 c8 fd ff ff       	call   2430 <add_sample>
    2668:	e8 83 fe ff ff       	call   24f0 <has_converged>
    266d:	83 c4 10             	add    $0x10,%esp
    2670:	85 c0                	test   %eax,%eax
    2672:	75 6c                	jne    26e0 <fcyc+0xc0>
    2674:	8b 83 78 01 00 00    	mov    0x178(%ebx),%eax
    267a:	39 83 dc 2a c2 01    	cmp    %eax,0x1c22adc(%ebx)
    2680:	7d 5e                	jge    26e0 <fcyc+0xc0>
    2682:	8b 93 e8 2a c2 01    	mov    0x1c22ae8(%ebx),%edx
    2688:	85 d2                	test   %edx,%edx
    268a:	74 c4                	je     2650 <fcyc+0x30>
    268c:	e8 ef fe ff ff       	call   2580 <clear>
    2691:	eb bd                	jmp    2650 <fcyc+0x30>
    2693:	90                   	nop
    2694:	8d 74 26 00          	lea    0x0(%esi,%eiz,1),%esi
    2698:	e8 e3 fe ff ff       	call   2580 <clear>
    269d:	e8 8e 02 00 00       	call   2930 <start_counter>
    26a2:	83 ec 0c             	sub    $0xc,%esp
    26a5:	56                   	push   %esi
    26a6:	ff d7                	call   *%edi
    26a8:	e8 b3 02 00 00       	call   2960 <get_counter>
    26ad:	dd 1c 24             	fstpl  (%esp)
    26b0:	e8 7b fd ff ff       	call   2430 <add_sample>
    26b5:	e8 36 fe ff ff       	call   24f0 <has_converged>
    26ba:	83 c4 10             	add    $0x10,%esp
    26bd:	85 c0                	test   %eax,%eax
    26bf:	75 1f                	jne    26e0 <fcyc+0xc0>
    26c1:	8b 83 78 01 00 00    	mov    0x178(%ebx),%eax
    26c7:	39 83 dc 2a c2 01    	cmp    %eax,0x1c22adc(%ebx)
    26cd:	7d 11                	jge    26e0 <fcyc+0xc0>
    26cf:	8b 83 e8 2a c2 01    	mov    0x1c22ae8(%ebx),%eax
    26d5:	85 c0                	test   %eax,%eax
    26d7:	74 c4                	je     269d <fcyc+0x7d>
    26d9:	eb bd                	jmp    2698 <fcyc+0x78>
    26db:	90                   	nop
    26dc:	8d 74 26 00          	lea    0x0(%esi,%eiz,1),%esi
    26e0:	8b 83 e0 2a c2 01    	mov    0x1c22ae0(%ebx),%eax
    26e6:	83 ec 0c             	sub    $0xc,%esp
    26e9:	dd 00                	fldl   (%eax)
    26eb:	dd 5c 24 14          	fstpl  0x14(%esp)
    26ef:	50                   	push   %eax
    26f0:	e8 9b e0 ff ff       	call   790 <free@plt>
    26f5:	c7 83 e0 2a c2 01 00 	movl   $0x0,0x1c22ae0(%ebx)
    26fc:	00 00 00 
    26ff:	dd 44 24 18          	fldl   0x18(%esp)
    2703:	83 c4 20             	add    $0x20,%esp
    2706:	5b                   	pop    %ebx
    2707:	5e                   	pop    %esi
    2708:	5f                   	pop    %edi
    2709:	c3                   	ret    
    270a:	8d b6 00 00 00 00    	lea    0x0(%esi),%esi

00002710 <fcyc_v>:
    2710:	57                   	push   %edi
    2711:	56                   	push   %esi
    2712:	53                   	push   %ebx
    2713:	e8 58 e9 ff ff       	call   1070 <__x86.get_pc_thunk.bx>
    2718:	81 c3 60 38 00 00    	add    $0x3860,%ebx
    271e:	83 ec 10             	sub    $0x10,%esp
    2721:	8b 7c 24 20          	mov    0x20(%esp),%edi
    2725:	8b 74 24 24          	mov    0x24(%esp),%esi
    2729:	e8 02 fe ff ff       	call   2530 <init_sampler>
    272e:	8b 8b ec 2a c2 01    	mov    0x1c22aec(%ebx),%ecx
    2734:	85 c9                	test   %ecx,%ecx
    2736:	0f 84 83 00 00 00    	je     27bf <fcyc_v+0xaf>
    273c:	eb 34                	jmp    2772 <fcyc_v+0x62>
    273e:	66 90                	xchg   %ax,%ax
    2740:	e8 8b 03 00 00       	call   2ad0 <start_comp_counter>
    2745:	83 ec 0c             	sub    $0xc,%esp
    2748:	56                   	push   %esi
    2749:	ff d7                	call   *%edi
    274b:	e8 f0 04 00 00       	call   2c40 <get_comp_counter>
    2750:	dd 1c 24             	fstpl  (%esp)
    2753:	e8 d8 fc ff ff       	call   2430 <add_sample>
    2758:	e8 93 fd ff ff       	call   24f0 <has_converged>
    275d:	83 c4 10             	add    $0x10,%esp
    2760:	85 c0                	test   %eax,%eax
    2762:	75 6c                	jne    27d0 <fcyc_v+0xc0>
    2764:	8b 83 78 01 00 00    	mov    0x178(%ebx),%eax
    276a:	39 83 dc 2a c2 01    	cmp    %eax,0x1c22adc(%ebx)
    2770:	7d 5e                	jge    27d0 <fcyc_v+0xc0>
    2772:	8b 93 e8 2a c2 01    	mov    0x1c22ae8(%ebx),%edx
    2778:	85 d2                	test   %edx,%edx
    277a:	74 c4                	je     2740 <fcyc_v+0x30>
    277c:	e8 ff fd ff ff       	call   2580 <clear>
    2781:	eb bd                	jmp    2740 <fcyc_v+0x30>
    2783:	90                   	nop
    2784:	8d 74 26 00          	lea    0x0(%esi,%eiz,1),%esi
    2788:	e8 f3 fd ff ff       	call   2580 <clear>
    278d:	e8 9e 01 00 00       	call   2930 <start_counter>
    2792:	83 ec 0c             	sub    $0xc,%esp
    2795:	56                   	push   %esi
    2796:	ff d7                	call   *%edi
    2798:	e8 c3 01 00 00       	call   2960 <get_counter>
    279d:	dd 1c 24             	fstpl  (%esp)
    27a0:	e8 8b fc ff ff       	call   2430 <add_sample>
    27a5:	e8 46 fd ff ff       	call   24f0 <has_converged>
    27aa:	83 c4 10             	add    $0x10,%esp
    27ad:	85 c0                	test   %eax,%eax
    27af:	75 1f                	jne    27d0 <fcyc_v+0xc0>
    27b1:	8b 83 78 01 00 00    	mov    0x178(%ebx),%eax
    27b7:	39 83 dc 2a c2 01    	cmp    %eax,0x1c22adc(%ebx)
    27bd:	7d 11                	jge    27d0 <fcyc_v+0xc0>
    27bf:	8b 83 e8 2a c2 01    	mov    0x1c22ae8(%ebx),%eax
    27c5:	85 c0                	test   %eax,%eax
    27c7:	74 c4                	je     278d <fcyc_v+0x7d>
    27c9:	eb bd                	jmp    2788 <fcyc_v+0x78>
    27cb:	90                   	nop
    27cc:	8d 74 26 00          	lea    0x0(%esi,%eiz,1),%esi
    27d0:	8b 83 e0 2a c2 01    	mov    0x1c22ae0(%ebx),%eax
    27d6:	83 ec 0c             	sub    $0xc,%esp
    27d9:	dd 00                	fldl   (%eax)
    27db:	dd 5c 24 14          	fstpl  0x14(%esp)
    27df:	50                   	push   %eax
    27e0:	e8 ab df ff ff       	call   790 <free@plt>
    27e5:	c7 83 e0 2a c2 01 00 	movl   $0x0,0x1c22ae0(%ebx)
    27ec:	00 00 00 
    27ef:	dd 44 24 18          	fldl   0x18(%esp)
    27f3:	83 c4 20             	add    $0x20,%esp
    27f6:	5b                   	pop    %ebx
    27f7:	5e                   	pop    %esi
    27f8:	5f                   	pop    %edi
    27f9:	c3                   	ret    
    27fa:	8d b6 00 00 00 00    	lea    0x0(%esi),%esi

00002800 <set_fcyc_clear_cache>:
    2800:	8b 54 24 04          	mov    0x4(%esp),%edx
    2804:	e8 52 f9 ff ff       	call   215b <__x86.get_pc_thunk.ax>
    2809:	05 6f 37 00 00       	add    $0x376f,%eax
    280e:	89 90 e8 2a c2 01    	mov    %edx,0x1c22ae8(%eax)
    2814:	c3                   	ret    
    2815:	8d 74 26 00          	lea    0x0(%esi,%eiz,1),%esi
    2819:	8d bc 27 00 00 00 00 	lea    0x0(%edi,%eiz,1),%edi

00002820 <set_fcyc_cache_size>:
    2820:	53                   	push   %ebx
    2821:	e8 4a e8 ff ff       	call   1070 <__x86.get_pc_thunk.bx>
    2826:	81 c3 52 37 00 00    	add    $0x3752,%ebx
    282c:	83 ec 08             	sub    $0x8,%esp
    282f:	8b 44 24 10          	mov    0x10(%esp),%eax
    2833:	39 83 6c 01 00 00    	cmp    %eax,0x16c(%ebx)
    2839:	74 26                	je     2861 <set_fcyc_cache_size+0x41>
    283b:	89 83 6c 01 00 00    	mov    %eax,0x16c(%ebx)
    2841:	8b 83 e4 2a c2 01    	mov    0x1c22ae4(%ebx),%eax
    2847:	85 c0                	test   %eax,%eax
    2849:	74 16                	je     2861 <set_fcyc_cache_size+0x41>
    284b:	83 ec 0c             	sub    $0xc,%esp
    284e:	50                   	push   %eax
    284f:	e8 3c df ff ff       	call   790 <free@plt>
    2854:	c7 83 e4 2a c2 01 00 	movl   $0x0,0x1c22ae4(%ebx)
    285b:	00 00 00 
    285e:	83 c4 10             	add    $0x10,%esp
    2861:	83 c4 08             	add    $0x8,%esp
    2864:	5b                   	pop    %ebx
    2865:	c3                   	ret    
    2866:	8d 76 00             	lea    0x0(%esi),%esi
    2869:	8d bc 27 00 00 00 00 	lea    0x0(%edi,%eiz,1),%edi

00002870 <set_fcyc_cache_block>:
    2870:	8b 54 24 04          	mov    0x4(%esp),%edx
    2874:	e8 e2 f8 ff ff       	call   215b <__x86.get_pc_thunk.ax>
    2879:	05 ff 36 00 00       	add    $0x36ff,%eax
    287e:	89 90 68 01 00 00    	mov    %edx,0x168(%eax)
    2884:	c3                   	ret    
    2885:	8d 74 26 00          	lea    0x0(%esi,%eiz,1),%esi
    2889:	8d bc 27 00 00 00 00 	lea    0x0(%edi,%eiz,1),%edi

00002890 <set_fcyc_compensate>:
    2890:	8b 54 24 04          	mov    0x4(%esp),%edx
    2894:	e8 c2 f8 ff ff       	call   215b <__x86.get_pc_thunk.ax>
    2899:	05 df 36 00 00       	add    $0x36df,%eax
    289e:	89 90 ec 2a c2 01    	mov    %edx,0x1c22aec(%eax)
    28a4:	c3                   	ret    
    28a5:	8d 74 26 00          	lea    0x0(%esi,%eiz,1),%esi
    28a9:	8d bc 27 00 00 00 00 	lea    0x0(%edi,%eiz,1),%edi

000028b0 <set_fcyc_k>:
    28b0:	8b 54 24 04          	mov    0x4(%esp),%edx
    28b4:	e8 a2 f8 ff ff       	call   215b <__x86.get_pc_thunk.ax>
    28b9:	05 bf 36 00 00       	add    $0x36bf,%eax
    28be:	89 90 7c 01 00 00    	mov    %edx,0x17c(%eax)
    28c4:	c3                   	ret    
    28c5:	8d 74 26 00          	lea    0x0(%esi,%eiz,1),%esi
    28c9:	8d bc 27 00 00 00 00 	lea    0x0(%edi,%eiz,1),%edi

000028d0 <set_fcyc_maxsamples>:
    28d0:	8b 54 24 04          	mov    0x4(%esp),%edx
    28d4:	e8 82 f8 ff ff       	call   215b <__x86.get_pc_thunk.ax>
    28d9:	05 9f 36 00 00       	add    $0x369f,%eax
    28de:	89 90 78 01 00 00    	mov    %edx,0x178(%eax)
    28e4:	c3                   	ret    
    28e5:	8d 74 26 00          	lea    0x0(%esi,%eiz,1),%esi
    28e9:	8d bc 27 00 00 00 00 	lea    0x0(%edi,%eiz,1),%edi

000028f0 <set_fcyc_epsilon>:
    28f0:	e8 66 f8 ff ff       	call   215b <__x86.get_pc_thunk.ax>
    28f5:	05 83 36 00 00       	add    $0x3683,%eax
    28fa:	dd 44 24 04          	fldl   0x4(%esp)
    28fe:	dd 98 70 01 00 00    	fstpl  0x170(%eax)
    2904:	c3                   	ret    
    2905:	66 90                	xchg   %ax,%ax
    2907:	66 90                	xchg   %ax,%ax
    2909:	66 90                	xchg   %ax,%ax
    290b:	66 90                	xchg   %ax,%ax
    290d:	66 90                	xchg   %ax,%ax
    290f:	90                   	nop

00002910 <access_counter>:
    2910:	53                   	push   %ebx
    2911:	0f 31                	rdtsc  
    2913:	89 d3                	mov    %edx,%ebx
    2915:	89 c1                	mov    %eax,%ecx
    2917:	8b 44 24 08          	mov    0x8(%esp),%eax
    291b:	89 18                	mov    %ebx,(%eax)
    291d:	8b 44 24 0c          	mov    0xc(%esp),%eax
    2921:	89 08                	mov    %ecx,(%eax)
    2923:	5b                   	pop    %ebx
    2924:	c3                   	ret    
    2925:	8d 74 26 00          	lea    0x0(%esi,%eiz,1),%esi
    2929:	8d bc 27 00 00 00 00 	lea    0x0(%edi,%eiz,1),%edi

00002930 <start_counter>:
    2930:	e8 76 03 00 00       	call   2cab <__x86.get_pc_thunk.cx>
    2935:	81 c1 43 36 00 00    	add    $0x3643,%ecx
    293b:	56                   	push   %esi
    293c:	53                   	push   %ebx
    293d:	0f 31                	rdtsc  
    293f:	89 d6                	mov    %edx,%esi
    2941:	89 c3                	mov    %eax,%ebx
    2943:	89 b1 04 2b c2 01    	mov    %esi,0x1c22b04(%ecx)
    2949:	89 99 00 2b c2 01    	mov    %ebx,0x1c22b00(%ecx)
    294f:	5b                   	pop    %ebx
    2950:	5e                   	pop    %esi
    2951:	c3                   	ret    
    2952:	8d b4 26 00 00 00 00 	lea    0x0(%esi,%eiz,1),%esi
    2959:	8d bc 27 00 00 00 00 	lea    0x0(%edi,%eiz,1),%edi

00002960 <get_counter>:
    2960:	56                   	push   %esi
    2961:	53                   	push   %ebx
    2962:	e8 09 e7 ff ff       	call   1070 <__x86.get_pc_thunk.bx>
    2967:	81 c3 11 36 00 00    	add    $0x3611,%ebx
    296d:	83 ec 14             	sub    $0x14,%esp
    2970:	0f 31                	rdtsc  
    2972:	89 d1                	mov    %edx,%ecx
    2974:	89 c6                	mov    %eax,%esi
    2976:	89 f0                	mov    %esi,%eax
    2978:	2b 83 00 2b c2 01    	sub    0x1c22b00(%ebx),%eax
    297e:	c7 44 24 04 00 00 00 	movl   $0x0,0x4(%esp)
    2985:	00 
    2986:	1b 8b 04 2b c2 01    	sbb    0x1c22b04(%ebx),%ecx
    298c:	89 0c 24             	mov    %ecx,(%esp)
    298f:	df 2c 24             	fildll (%esp)
    2992:	89 04 24             	mov    %eax,(%esp)
    2995:	c7 44 24 04 00 00 00 	movl   $0x0,0x4(%esp)
    299c:	00 
    299d:	d8 8b 28 d4 ff ff    	fmuls  -0x2bd8(%ebx)
    29a3:	d8 8b 2c d4 ff ff    	fmuls  -0x2bd4(%ebx)
    29a9:	df 2c 24             	fildll (%esp)
    29ac:	de c1                	faddp  %st,%st(1)
    29ae:	d9 ee                	fldz   
    29b0:	df e9                	fucomip %st(1),%st
    29b2:	77 0c                	ja     29c0 <get_counter+0x60>
    29b4:	83 c4 14             	add    $0x14,%esp
    29b7:	5b                   	pop    %ebx
    29b8:	5e                   	pop    %esi
    29b9:	c3                   	ret    
    29ba:	8d b6 00 00 00 00    	lea    0x0(%esi),%esi
    29c0:	83 ec 14             	sub    $0x14,%esp
    29c3:	8d 83 dc d3 ff ff    	lea    -0x2c24(%ebx),%eax
    29c9:	dd 14 24             	fstl   (%esp)
    29cc:	dd 5c 24 14          	fstpl  0x14(%esp)
    29d0:	50                   	push   %eax
    29d1:	8b 83 70 00 00 00    	mov    0x70(%ebx),%eax
    29d7:	6a 01                	push   $0x1
    29d9:	ff 30                	pushl  (%eax)
    29db:	e8 e0 de ff ff       	call   8c0 <__fprintf_chk@plt>
    29e0:	83 c4 20             	add    $0x20,%esp
    29e3:	dd 04 24             	fldl   (%esp)
    29e6:	83 c4 14             	add    $0x14,%esp
    29e9:	5b                   	pop    %ebx
    29ea:	5e                   	pop    %esi
    29eb:	c3                   	ret    
    29ec:	8d 74 26 00          	lea    0x0(%esi,%eiz,1),%esi

000029f0 <ovhd>:
    29f0:	56                   	push   %esi
    29f1:	53                   	push   %ebx
    29f2:	e8 79 e6 ff ff       	call   1070 <__x86.get_pc_thunk.bx>
    29f7:	81 c3 81 35 00 00    	add    $0x3581,%ebx
    29fd:	83 ec 04             	sub    $0x4,%esp
    2a00:	0f 31                	rdtsc  
    2a02:	89 d6                	mov    %edx,%esi
    2a04:	89 c1                	mov    %eax,%ecx
    2a06:	89 b3 04 2b c2 01    	mov    %esi,0x1c22b04(%ebx)
    2a0c:	89 8b 00 2b c2 01    	mov    %ecx,0x1c22b00(%ebx)
    2a12:	e8 49 ff ff ff       	call   2960 <get_counter>
    2a17:	dd d8                	fstp   %st(0)
    2a19:	0f 31                	rdtsc  
    2a1b:	89 d6                	mov    %edx,%esi
    2a1d:	89 c1                	mov    %eax,%ecx
    2a1f:	89 b3 04 2b c2 01    	mov    %esi,0x1c22b04(%ebx)
    2a25:	89 8b 00 2b c2 01    	mov    %ecx,0x1c22b00(%ebx)
    2a2b:	83 c4 04             	add    $0x4,%esp
    2a2e:	5b                   	pop    %ebx
    2a2f:	5e                   	pop    %esi
    2a30:	e9 2b ff ff ff       	jmp    2960 <get_counter>
    2a35:	8d 74 26 00          	lea    0x0(%esi,%eiz,1),%esi
    2a39:	8d bc 27 00 00 00 00 	lea    0x0(%edi,%eiz,1),%edi

00002a40 <mhz_full>:
    2a40:	56                   	push   %esi
    2a41:	53                   	push   %ebx
    2a42:	e8 29 e6 ff ff       	call   1070 <__x86.get_pc_thunk.bx>
    2a47:	81 c3 31 35 00 00    	add    $0x3531,%ebx
    2a4d:	83 ec 20             	sub    $0x20,%esp
    2a50:	ff 74 24 30          	pushl  0x30(%esp)
    2a54:	0f 31                	rdtsc  
    2a56:	89 d6                	mov    %edx,%esi
    2a58:	89 c1                	mov    %eax,%ecx
    2a5a:	89 8b 00 2b c2 01    	mov    %ecx,0x1c22b00(%ebx)
    2a60:	89 b3 04 2b c2 01    	mov    %esi,0x1c22b04(%ebx)
    2a66:	e8 65 dd ff ff       	call   7d0 <sleep@plt>
    2a6b:	e8 f0 fe ff ff       	call   2960 <get_counter>
    2a70:	db 44 24 34          	fildl  0x34(%esp)
    2a74:	83 c4 10             	add    $0x10,%esp
    2a77:	8b 44 24 20          	mov    0x20(%esp),%eax
    2a7b:	d8 8b 30 d4 ff ff    	fmuls  -0x2bd0(%ebx)
    2a81:	85 c0                	test   %eax,%eax
    2a83:	de f9                	fdivrp %st,%st(1)
    2a85:	74 1f                	je     2aa6 <mhz_full+0x66>
    2a87:	83 ec 08             	sub    $0x8,%esp
    2a8a:	8d 83 04 d4 ff ff    	lea    -0x2bfc(%ebx),%eax
    2a90:	dd 14 24             	fstl   (%esp)
    2a93:	dd 5c 24 10          	fstpl  0x10(%esp)
    2a97:	50                   	push   %eax
    2a98:	6a 01                	push   $0x1
    2a9a:	e8 11 de ff ff       	call   8b0 <__printf_chk@plt>
    2a9f:	83 c4 10             	add    $0x10,%esp
    2aa2:	dd 44 24 08          	fldl   0x8(%esp)
    2aa6:	83 c4 14             	add    $0x14,%esp
    2aa9:	5b                   	pop    %ebx
    2aaa:	5e                   	pop    %esi
    2aab:	c3                   	ret    
    2aac:	8d 74 26 00          	lea    0x0(%esi,%eiz,1),%esi

00002ab0 <mhz>:
    2ab0:	83 ec 14             	sub    $0x14,%esp
    2ab3:	6a 02                	push   $0x2
    2ab5:	ff 74 24 1c          	pushl  0x1c(%esp)
    2ab9:	e8 82 ff ff ff       	call   2a40 <mhz_full>
    2abe:	83 c4 1c             	add    $0x1c,%esp
    2ac1:	c3                   	ret    
    2ac2:	8d b4 26 00 00 00 00 	lea    0x0(%esi,%eiz,1),%esi
    2ac9:	8d bc 27 00 00 00 00 	lea    0x0(%edi,%eiz,1),%edi

00002ad0 <start_comp_counter>:
    2ad0:	55                   	push   %ebp
    2ad1:	57                   	push   %edi
    2ad2:	56                   	push   %esi
    2ad3:	53                   	push   %ebx
    2ad4:	e8 97 e5 ff ff       	call   1070 <__x86.get_pc_thunk.bx>
    2ad9:	81 c3 9f 34 00 00    	add    $0x349f,%ebx
    2adf:	83 ec 3c             	sub    $0x3c,%esp
    2ae2:	d9 ee                	fldz   
    2ae4:	dd 83 f8 2a c2 01    	fldl   0x1c22af8(%ebx)
    2aea:	65 a1 14 00 00 00    	mov    %gs:0x14,%eax
    2af0:	89 44 24 2c          	mov    %eax,0x2c(%esp)
    2af4:	31 c0                	xor    %eax,%eax
    2af6:	df e9                	fucomip %st(1),%st
    2af8:	dd d8                	fstp   %st(0)
    2afa:	7a 02                	jp     2afe <start_comp_counter+0x2e>
    2afc:	74 5a                	je     2b58 <start_comp_counter+0x88>
    2afe:	8d 7c 24 1c          	lea    0x1c(%esp),%edi
    2b02:	eb 0c                	jmp    2b10 <start_comp_counter+0x40>
    2b04:	8d 74 26 00          	lea    0x0(%esi,%eiz,1),%esi
    2b08:	dd d8                	fstp   %st(0)
    2b0a:	8d b6 00 00 00 00    	lea    0x0(%esi),%esi
    2b10:	83 ec 0c             	sub    $0xc,%esp
    2b13:	57                   	push   %edi
    2b14:	e8 67 dc ff ff       	call   780 <times@plt>
    2b19:	8b 44 24 2c          	mov    0x2c(%esp),%eax
    2b1d:	83 c4 10             	add    $0x10,%esp
    2b20:	89 83 f0 2a c2 01    	mov    %eax,0x1c22af0(%ebx)
    2b26:	0f 31                	rdtsc  
    2b28:	89 d6                	mov    %edx,%esi
    2b2a:	89 c1                	mov    %eax,%ecx
    2b2c:	8b 44 24 2c          	mov    0x2c(%esp),%eax
    2b30:	65 33 05 14 00 00 00 	xor    %gs:0x14,%eax
    2b37:	89 b3 04 2b c2 01    	mov    %esi,0x1c22b04(%ebx)
    2b3d:	89 8b 00 2b c2 01    	mov    %ecx,0x1c22b00(%ebx)
    2b43:	0f 85 ef 00 00 00    	jne    2c38 <start_comp_counter+0x168>
    2b49:	83 c4 3c             	add    $0x3c,%esp
    2b4c:	5b                   	pop    %ebx
    2b4d:	5e                   	pop    %esi
    2b4e:	5f                   	pop    %edi
    2b4f:	5d                   	pop    %ebp
    2b50:	c3                   	ret    
    2b51:	8d b4 26 00 00 00 00 	lea    0x0(%esi,%eiz,1),%esi
    2b58:	83 ec 0c             	sub    $0xc,%esp
    2b5b:	8d 7c 24 28          	lea    0x28(%esp),%edi
    2b5f:	57                   	push   %edi
    2b60:	e8 1b dc ff ff       	call   780 <times@plt>
    2b65:	0f 31                	rdtsc  
    2b67:	89 d6                	mov    %edx,%esi
    2b69:	89 c1                	mov    %eax,%ecx
    2b6b:	8b 6c 24 2c          	mov    0x2c(%esp),%ebp
    2b6f:	89 b3 04 2b c2 01    	mov    %esi,0x1c22b04(%ebx)
    2b75:	31 f6                	xor    %esi,%esi
    2b77:	89 8b 00 2b c2 01    	mov    %ecx,0x1c22b00(%ebx)
    2b7d:	e8 de fd ff ff       	call   2960 <get_counter>
    2b82:	dd 5c 24 10          	fstpl  0x10(%esp)
    2b86:	83 c4 10             	add    $0x10,%esp
    2b89:	eb 12                	jmp    2b9d <start_comp_counter+0xcd>
    2b8b:	90                   	nop
    2b8c:	8d 74 26 00          	lea    0x0(%esi,%eiz,1),%esi
    2b90:	dd d8                	fstp   %st(0)
    2b92:	dd d8                	fstp   %st(0)
    2b94:	83 fe 63             	cmp    $0x63,%esi
    2b97:	0f 8f 73 ff ff ff    	jg     2b10 <start_comp_counter+0x40>
    2b9d:	e8 be fd ff ff       	call   2960 <get_counter>
    2ba2:	dd 04 24             	fldl   (%esp)
    2ba5:	d8 e9                	fsubr  %st(1),%st
    2ba7:	d9 83 34 d4 ff ff    	flds   -0x2bcc(%ebx)
    2bad:	d9 c9                	fxch   %st(1)
    2baf:	db e9                	fucomi %st(1),%st
    2bb1:	dd d9                	fstp   %st(1)
    2bb3:	72 db                	jb     2b90 <start_comp_counter+0xc0>
    2bb5:	dd 5c 24 08          	fstpl  0x8(%esp)
    2bb9:	83 ec 0c             	sub    $0xc,%esp
    2bbc:	dd 5c 24 0c          	fstpl  0xc(%esp)
    2bc0:	57                   	push   %edi
    2bc1:	e8 ba db ff ff       	call   780 <times@plt>
    2bc6:	8b 44 24 2c          	mov    0x2c(%esp),%eax
    2bca:	83 c4 10             	add    $0x10,%esp
    2bcd:	39 e8                	cmp    %ebp,%eax
    2bcf:	dd 04 24             	fldl   (%esp)
    2bd2:	7e 53                	jle    2c27 <start_comp_counter+0x157>
    2bd4:	89 c2                	mov    %eax,%edx
    2bd6:	29 ea                	sub    %ebp,%edx
    2bd8:	89 14 24             	mov    %edx,(%esp)
    2bdb:	db 04 24             	fildl  (%esp)
    2bde:	dd 44 24 08          	fldl   0x8(%esp)
    2be2:	de f1                	fdivp  %st,%st(1)
    2be4:	d9 ee                	fldz   
    2be6:	dd 83 f8 2a c2 01    	fldl   0x1c22af8(%ebx)
    2bec:	db e9                	fucomi %st(1),%st
    2bee:	dd d9                	fstp   %st(1)
    2bf0:	7a 02                	jp     2bf4 <start_comp_counter+0x124>
    2bf2:	74 0c                	je     2c00 <start_comp_counter+0x130>
    2bf4:	df e9                	fucomip %st(1),%st
    2bf6:	76 20                	jbe    2c18 <start_comp_counter+0x148>
    2bf8:	eb 08                	jmp    2c02 <start_comp_counter+0x132>
    2bfa:	8d b6 00 00 00 00    	lea    0x0(%esi),%esi
    2c00:	dd d8                	fstp   %st(0)
    2c02:	d9 83 38 d4 ff ff    	flds   -0x2bc8(%ebx)
    2c08:	d9 c9                	fxch   %st(1)
    2c0a:	db e9                	fucomi %st(1),%st
    2c0c:	dd d9                	fstp   %st(1)
    2c0e:	76 10                	jbe    2c20 <start_comp_counter+0x150>
    2c10:	dd 9b f8 2a c2 01    	fstpl  0x1c22af8(%ebx)
    2c16:	eb 0a                	jmp    2c22 <start_comp_counter+0x152>
    2c18:	dd d8                	fstp   %st(0)
    2c1a:	eb 06                	jmp    2c22 <start_comp_counter+0x152>
    2c1c:	8d 74 26 00          	lea    0x0(%esi,%eiz,1),%esi
    2c20:	dd d8                	fstp   %st(0)
    2c22:	83 c6 01             	add    $0x1,%esi
    2c25:	89 c5                	mov    %eax,%ebp
    2c27:	83 fe 63             	cmp    $0x63,%esi
    2c2a:	0f 8f d8 fe ff ff    	jg     2b08 <start_comp_counter+0x38>
    2c30:	dd 1c 24             	fstpl  (%esp)
    2c33:	e9 65 ff ff ff       	jmp    2b9d <start_comp_counter+0xcd>
    2c38:	e8 e3 00 00 00       	call   2d20 <__stack_chk_fail_local>
    2c3d:	8d 76 00             	lea    0x0(%esi),%esi

00002c40 <get_comp_counter>:
    2c40:	53                   	push   %ebx
    2c41:	e8 2a e4 ff ff       	call   1070 <__x86.get_pc_thunk.bx>
    2c46:	81 c3 32 33 00 00    	add    $0x3332,%ebx
    2c4c:	83 ec 38             	sub    $0x38,%esp
    2c4f:	65 a1 14 00 00 00    	mov    %gs:0x14,%eax
    2c55:	89 44 24 2c          	mov    %eax,0x2c(%esp)
    2c59:	31 c0                	xor    %eax,%eax
    2c5b:	e8 00 fd ff ff       	call   2960 <get_counter>
    2c60:	83 ec 0c             	sub    $0xc,%esp
    2c63:	dd 5c 24 14          	fstpl  0x14(%esp)
    2c67:	8d 44 24 28          	lea    0x28(%esp),%eax
    2c6b:	50                   	push   %eax
    2c6c:	e8 0f db ff ff       	call   780 <times@plt>
    2c71:	8b 44 24 2c          	mov    0x2c(%esp),%eax
    2c75:	2b 83 f0 2a c2 01    	sub    0x1c22af0(%ebx),%eax
    2c7b:	89 44 24 14          	mov    %eax,0x14(%esp)
    2c7f:	db 44 24 14          	fildl  0x14(%esp)
    2c83:	dc 8b f8 2a c2 01    	fmull  0x1c22af8(%ebx)
    2c89:	dd 44 24 18          	fldl   0x18(%esp)
    2c8d:	83 c4 10             	add    $0x10,%esp
    2c90:	8b 44 24 2c          	mov    0x2c(%esp),%eax
    2c94:	65 33 05 14 00 00 00 	xor    %gs:0x14,%eax
    2c9b:	de e1                	fsubp  %st,%st(1)
    2c9d:	75 05                	jne    2ca4 <get_comp_counter+0x64>
    2c9f:	83 c4 38             	add    $0x38,%esp
    2ca2:	5b                   	pop    %ebx
    2ca3:	c3                   	ret    
    2ca4:	dd d8                	fstp   %st(0)
    2ca6:	e8 75 00 00 00       	call   2d20 <__stack_chk_fail_local>

00002cab <__x86.get_pc_thunk.cx>:
    2cab:	8b 0c 24             	mov    (%esp),%ecx
    2cae:	c3                   	ret    
    2caf:	90                   	nop

00002cb0 <__libc_csu_init>:
    2cb0:	55                   	push   %ebp
    2cb1:	57                   	push   %edi
    2cb2:	56                   	push   %esi
    2cb3:	53                   	push   %ebx
    2cb4:	e8 b7 e3 ff ff       	call   1070 <__x86.get_pc_thunk.bx>
    2cb9:	81 c3 bf 32 00 00    	add    $0x32bf,%ebx
    2cbf:	83 ec 0c             	sub    $0xc,%esp
    2cc2:	8b 6c 24 28          	mov    0x28(%esp),%ebp
    2cc6:	8d b3 fc fe ff ff    	lea    -0x104(%ebx),%esi
    2ccc:	e8 67 da ff ff       	call   738 <_init>
    2cd1:	8d 83 f8 fe ff ff    	lea    -0x108(%ebx),%eax
    2cd7:	29 c6                	sub    %eax,%esi
    2cd9:	c1 fe 02             	sar    $0x2,%esi
    2cdc:	85 f6                	test   %esi,%esi
    2cde:	74 25                	je     2d05 <__libc_csu_init+0x55>
    2ce0:	31 ff                	xor    %edi,%edi
    2ce2:	8d b6 00 00 00 00    	lea    0x0(%esi),%esi
    2ce8:	83 ec 04             	sub    $0x4,%esp
    2ceb:	55                   	push   %ebp
    2cec:	ff 74 24 2c          	pushl  0x2c(%esp)
    2cf0:	ff 74 24 2c          	pushl  0x2c(%esp)
    2cf4:	ff 94 bb f8 fe ff ff 	call   *-0x108(%ebx,%edi,4)
    2cfb:	83 c7 01             	add    $0x1,%edi
    2cfe:	83 c4 10             	add    $0x10,%esp
    2d01:	39 fe                	cmp    %edi,%esi
    2d03:	75 e3                	jne    2ce8 <__libc_csu_init+0x38>
    2d05:	83 c4 0c             	add    $0xc,%esp
    2d08:	5b                   	pop    %ebx
    2d09:	5e                   	pop    %esi
    2d0a:	5f                   	pop    %edi
    2d0b:	5d                   	pop    %ebp
    2d0c:	c3                   	ret    
    2d0d:	8d 76 00             	lea    0x0(%esi),%esi

00002d10 <__libc_csu_fini>:
    2d10:	f3 c3                	repz ret 
    2d12:	66 90                	xchg   %ax,%ax
    2d14:	66 90                	xchg   %ax,%ax
    2d16:	66 90                	xchg   %ax,%ax
    2d18:	66 90                	xchg   %ax,%ax
    2d1a:	66 90                	xchg   %ax,%ax
    2d1c:	66 90                	xchg   %ax,%ax
    2d1e:	66 90                	xchg   %ax,%ax

00002d20 <__stack_chk_fail_local>:
    2d20:	53                   	push   %ebx
    2d21:	e8 4a e3 ff ff       	call   1070 <__x86.get_pc_thunk.bx>
    2d26:	81 c3 52 32 00 00    	add    $0x3252,%ebx
    2d2c:	83 ec 08             	sub    $0x8,%esp
    2d2f:	e8 bc da ff ff       	call   7f0 <__stack_chk_fail@plt>

Disassembly of section .fini:

00002d34 <_fini>:
    2d34:	53                   	push   %ebx
    2d35:	83 ec 08             	sub    $0x8,%esp
    2d38:	e8 33 e3 ff ff       	call   1070 <__x86.get_pc_thunk.bx>
    2d3d:	81 c3 3b 32 00 00    	add    $0x323b,%ebx
    2d43:	83 c4 08             	add    $0x8,%esp
    2d46:	5b                   	pop    %ebx
    2d47:	c3                   	ret    
