
mdriver:     file format elf32-i386


Disassembly of section .init:

00000d18 <_init>:
 d18:	53                   	push   %ebx
 d19:	83 ec 08             	sub    $0x8,%esp
 d1c:	e8 7f 02 00 00       	call   fa0 <__x86.get_pc_thunk.bx>
 d21:	81 c3 37 62 00 00    	add    $0x6237,%ebx
 d27:	8b 83 98 00 00 00    	mov    0x98(%ebx),%eax
 d2d:	85 c0                	test   %eax,%eax
 d2f:	74 05                	je     d36 <_init+0x1e>
 d31:	e8 22 02 00 00       	call   f58 <__gmon_start__@plt>
 d36:	83 c4 08             	add    $0x8,%esp
 d39:	5b                   	pop    %ebx
 d3a:	c3                   	ret    

Disassembly of section .plt:

00000d40 <.plt>:
 d40:	ff b3 04 00 00 00    	pushl  0x4(%ebx)
 d46:	ff a3 08 00 00 00    	jmp    *0x8(%ebx)
 d4c:	00 00                	add    %al,(%eax)
	...

00000d50 <setitimer@plt>:
 d50:	ff a3 0c 00 00 00    	jmp    *0xc(%ebx)
 d56:	68 00 00 00 00       	push   $0x0
 d5b:	e9 e0 ff ff ff       	jmp    d40 <.plt>

00000d60 <printf@plt>:
 d60:	ff a3 10 00 00 00    	jmp    *0x10(%ebx)
 d66:	68 08 00 00 00       	push   $0x8
 d6b:	e9 d0 ff ff ff       	jmp    d40 <.plt>

00000d70 <times@plt>:
 d70:	ff a3 14 00 00 00    	jmp    *0x14(%ebx)
 d76:	68 10 00 00 00       	push   $0x10
 d7b:	e9 c0 ff ff ff       	jmp    d40 <.plt>

00000d80 <__isoc99_fscanf@plt>:
 d80:	ff a3 18 00 00 00    	jmp    *0x18(%ebx)
 d86:	68 18 00 00 00       	push   $0x18
 d8b:	e9 b0 ff ff ff       	jmp    d40 <.plt>

00000d90 <free@plt>:
 d90:	ff a3 1c 00 00 00    	jmp    *0x1c(%ebx)
 d96:	68 20 00 00 00       	push   $0x20
 d9b:	e9 a0 ff ff ff       	jmp    d40 <.plt>

00000da0 <strdup@plt>:
 da0:	ff a3 20 00 00 00    	jmp    *0x20(%ebx)
 da6:	68 28 00 00 00       	push   $0x28
 dab:	e9 90 ff ff ff       	jmp    d40 <.plt>

00000db0 <fclose@plt>:
 db0:	ff a3 24 00 00 00    	jmp    *0x24(%ebx)
 db6:	68 30 00 00 00       	push   $0x30
 dbb:	e9 80 ff ff ff       	jmp    d40 <.plt>

00000dc0 <gettimeofday@plt>:
 dc0:	ff a3 28 00 00 00    	jmp    *0x28(%ebx)
 dc6:	68 38 00 00 00       	push   $0x38
 dcb:	e9 70 ff ff ff       	jmp    d40 <.plt>

00000dd0 <sleep@plt>:
 dd0:	ff a3 2c 00 00 00    	jmp    *0x2c(%ebx)
 dd6:	68 40 00 00 00       	push   $0x40
 ddb:	e9 60 ff ff ff       	jmp    d40 <.plt>

00000de0 <__stack_chk_fail@plt>:
 de0:	ff a3 30 00 00 00    	jmp    *0x30(%ebx)
 de6:	68 48 00 00 00       	push   $0x48
 deb:	e9 50 ff ff ff       	jmp    d40 <.plt>

00000df0 <getitimer@plt>:
 df0:	ff a3 34 00 00 00    	jmp    *0x34(%ebx)
 df6:	68 50 00 00 00       	push   $0x50
 dfb:	e9 40 ff ff ff       	jmp    d40 <.plt>

00000e00 <fwrite@plt>:
 e00:	ff a3 38 00 00 00    	jmp    *0x38(%ebx)
 e06:	68 58 00 00 00       	push   $0x58
 e0b:	e9 30 ff ff ff       	jmp    d40 <.plt>

00000e10 <strcat@plt>:
 e10:	ff a3 3c 00 00 00    	jmp    *0x3c(%ebx)
 e16:	68 60 00 00 00       	push   $0x60
 e1b:	e9 20 ff ff ff       	jmp    d40 <.plt>

00000e20 <strcpy@plt>:
 e20:	ff a3 40 00 00 00    	jmp    *0x40(%ebx)
 e26:	68 68 00 00 00       	push   $0x68
 e2b:	e9 10 ff ff ff       	jmp    d40 <.plt>

00000e30 <realloc@plt>:
 e30:	ff a3 44 00 00 00    	jmp    *0x44(%ebx)
 e36:	68 70 00 00 00       	push   $0x70
 e3b:	e9 00 ff ff ff       	jmp    d40 <.plt>

00000e40 <malloc@plt>:
 e40:	ff a3 48 00 00 00    	jmp    *0x48(%ebx)
 e46:	68 78 00 00 00       	push   $0x78
 e4b:	e9 f0 fe ff ff       	jmp    d40 <.plt>

00000e50 <puts@plt>:
 e50:	ff a3 4c 00 00 00    	jmp    *0x4c(%ebx)
 e56:	68 80 00 00 00       	push   $0x80
 e5b:	e9 e0 fe ff ff       	jmp    d40 <.plt>

00000e60 <strerror@plt>:
 e60:	ff a3 50 00 00 00    	jmp    *0x50(%ebx)
 e66:	68 88 00 00 00       	push   $0x88
 e6b:	e9 d0 fe ff ff       	jmp    d40 <.plt>

00000e70 <exit@plt>:
 e70:	ff a3 54 00 00 00    	jmp    *0x54(%ebx)
 e76:	68 90 00 00 00       	push   $0x90
 e7b:	e9 c0 fe ff ff       	jmp    d40 <.plt>

00000e80 <strlen@plt>:
 e80:	ff a3 58 00 00 00    	jmp    *0x58(%ebx)
 e86:	68 98 00 00 00       	push   $0x98
 e8b:	e9 b0 fe ff ff       	jmp    d40 <.plt>

00000e90 <__libc_start_main@plt>:
 e90:	ff a3 5c 00 00 00    	jmp    *0x5c(%ebx)
 e96:	68 a0 00 00 00       	push   $0xa0
 e9b:	e9 a0 fe ff ff       	jmp    d40 <.plt>

00000ea0 <getopt@plt>:
 ea0:	ff a3 60 00 00 00    	jmp    *0x60(%ebx)
 ea6:	68 a8 00 00 00       	push   $0xa8
 eab:	e9 90 fe ff ff       	jmp    d40 <.plt>

00000eb0 <getpagesize@plt>:
 eb0:	ff a3 64 00 00 00    	jmp    *0x64(%ebx)
 eb6:	68 b0 00 00 00       	push   $0xb0
 ebb:	e9 80 fe ff ff       	jmp    d40 <.plt>

00000ec0 <fopen@plt>:
 ec0:	ff a3 68 00 00 00    	jmp    *0x68(%ebx)
 ec6:	68 b8 00 00 00       	push   $0xb8
 ecb:	e9 70 fe ff ff       	jmp    d40 <.plt>

00000ed0 <memset@plt>:
 ed0:	ff a3 6c 00 00 00    	jmp    *0x6c(%ebx)
 ed6:	68 c0 00 00 00       	push   $0xc0
 edb:	e9 60 fe ff ff       	jmp    d40 <.plt>

00000ee0 <putchar@plt>:
 ee0:	ff a3 70 00 00 00    	jmp    *0x70(%ebx)
 ee6:	68 c8 00 00 00       	push   $0xc8
 eeb:	e9 50 fe ff ff       	jmp    d40 <.plt>

00000ef0 <__errno_location@plt>:
 ef0:	ff a3 74 00 00 00    	jmp    *0x74(%ebx)
 ef6:	68 d0 00 00 00       	push   $0xd0
 efb:	e9 40 fe ff ff       	jmp    d40 <.plt>

00000f00 <__printf_chk@plt>:
 f00:	ff a3 78 00 00 00    	jmp    *0x78(%ebx)
 f06:	68 d8 00 00 00       	push   $0xd8
 f0b:	e9 30 fe ff ff       	jmp    d40 <.plt>

00000f10 <sprintf@plt>:
 f10:	ff a3 7c 00 00 00    	jmp    *0x7c(%ebx)
 f16:	68 e0 00 00 00       	push   $0xe0
 f1b:	e9 20 fe ff ff       	jmp    d40 <.plt>

00000f20 <__fprintf_chk@plt>:
 f20:	ff a3 80 00 00 00    	jmp    *0x80(%ebx)
 f26:	68 e8 00 00 00       	push   $0xe8
 f2b:	e9 10 fe ff ff       	jmp    d40 <.plt>

00000f30 <__assert_fail@plt>:
 f30:	ff a3 84 00 00 00    	jmp    *0x84(%ebx)
 f36:	68 f0 00 00 00       	push   $0xf0
 f3b:	e9 00 fe ff ff       	jmp    d40 <.plt>

00000f40 <calloc@plt>:
 f40:	ff a3 88 00 00 00    	jmp    *0x88(%ebx)
 f46:	68 f8 00 00 00       	push   $0xf8
 f4b:	e9 f0 fd ff ff       	jmp    d40 <.plt>

Disassembly of section .plt.got:

00000f50 <__cxa_finalize@plt>:
 f50:	ff a3 94 00 00 00    	jmp    *0x94(%ebx)
 f56:	66 90                	xchg   %ax,%ax

00000f58 <__gmon_start__@plt>:
 f58:	ff a3 98 00 00 00    	jmp    *0x98(%ebx)
 f5e:	66 90                	xchg   %ax,%ax

Disassembly of section .text:

00000f60 <_start>:
     f60:	31 ed                	xor    %ebp,%ebp
     f62:	5e                   	pop    %esi
     f63:	89 e1                	mov    %esp,%ecx
     f65:	83 e4 f0             	and    $0xfffffff0,%esp
     f68:	50                   	push   %eax
     f69:	54                   	push   %esp
     f6a:	52                   	push   %edx
     f6b:	e8 22 00 00 00       	call   f92 <_start+0x32>
     f70:	81 c3 e8 5f 00 00    	add    $0x5fe8,%ebx
     f76:	8d 83 78 d2 ff ff    	lea    -0x2d88(%ebx),%eax
     f7c:	50                   	push   %eax
     f7d:	8d 83 18 d2 ff ff    	lea    -0x2de8(%ebx),%eax
     f83:	50                   	push   %eax
     f84:	51                   	push   %ecx
     f85:	56                   	push   %esi
     f86:	ff b3 9c 00 00 00    	pushl  0x9c(%ebx)
     f8c:	e8 ff fe ff ff       	call   e90 <__libc_start_main@plt>
     f91:	f4                   	hlt    
     f92:	8b 1c 24             	mov    (%esp),%ebx
     f95:	c3                   	ret    
     f96:	66 90                	xchg   %ax,%ax
     f98:	66 90                	xchg   %ax,%ax
     f9a:	66 90                	xchg   %ax,%ax
     f9c:	66 90                	xchg   %ax,%ax
     f9e:	66 90                	xchg   %ax,%ax

00000fa0 <__x86.get_pc_thunk.bx>:
     fa0:	8b 1c 24             	mov    (%esp),%ebx
     fa3:	c3                   	ret    
     fa4:	66 90                	xchg   %ax,%ax
     fa6:	66 90                	xchg   %ax,%ax
     fa8:	66 90                	xchg   %ax,%ax
     faa:	66 90                	xchg   %ax,%ax
     fac:	66 90                	xchg   %ax,%ax
     fae:	66 90                	xchg   %ax,%ax

00000fb0 <deregister_tm_clones>:
     fb0:	e8 e4 00 00 00       	call   1099 <__x86.get_pc_thunk.dx>
     fb5:	81 c2 a3 5f 00 00    	add    $0x5fa3,%edx
     fbb:	8d 8a 28 05 00 00    	lea    0x528(%edx),%ecx
     fc1:	8d 82 28 05 00 00    	lea    0x528(%edx),%eax
     fc7:	39 c8                	cmp    %ecx,%eax
     fc9:	74 1d                	je     fe8 <deregister_tm_clones+0x38>
     fcb:	8b 82 8c 00 00 00    	mov    0x8c(%edx),%eax
     fd1:	85 c0                	test   %eax,%eax
     fd3:	74 13                	je     fe8 <deregister_tm_clones+0x38>
     fd5:	55                   	push   %ebp
     fd6:	89 e5                	mov    %esp,%ebp
     fd8:	83 ec 14             	sub    $0x14,%esp
     fdb:	51                   	push   %ecx
     fdc:	ff d0                	call   *%eax
     fde:	83 c4 10             	add    $0x10,%esp
     fe1:	c9                   	leave  
     fe2:	c3                   	ret    
     fe3:	90                   	nop
     fe4:	8d 74 26 00          	lea    0x0(%esi,%eiz,1),%esi
     fe8:	f3 c3                	repz ret 
     fea:	8d b6 00 00 00 00    	lea    0x0(%esi),%esi

00000ff0 <register_tm_clones>:
     ff0:	e8 a4 00 00 00       	call   1099 <__x86.get_pc_thunk.dx>
     ff5:	81 c2 63 5f 00 00    	add    $0x5f63,%edx
     ffb:	55                   	push   %ebp
     ffc:	8d 8a 28 05 00 00    	lea    0x528(%edx),%ecx
    1002:	8d 82 28 05 00 00    	lea    0x528(%edx),%eax
    1008:	29 c8                	sub    %ecx,%eax
    100a:	89 e5                	mov    %esp,%ebp
    100c:	53                   	push   %ebx
    100d:	c1 f8 02             	sar    $0x2,%eax
    1010:	89 c3                	mov    %eax,%ebx
    1012:	83 ec 04             	sub    $0x4,%esp
    1015:	c1 eb 1f             	shr    $0x1f,%ebx
    1018:	01 d8                	add    %ebx,%eax
    101a:	d1 f8                	sar    %eax
    101c:	74 14                	je     1032 <register_tm_clones+0x42>
    101e:	8b 92 a0 00 00 00    	mov    0xa0(%edx),%edx
    1024:	85 d2                	test   %edx,%edx
    1026:	74 0a                	je     1032 <register_tm_clones+0x42>
    1028:	83 ec 08             	sub    $0x8,%esp
    102b:	50                   	push   %eax
    102c:	51                   	push   %ecx
    102d:	ff d2                	call   *%edx
    102f:	83 c4 10             	add    $0x10,%esp
    1032:	8b 5d fc             	mov    -0x4(%ebp),%ebx
    1035:	c9                   	leave  
    1036:	c3                   	ret    
    1037:	89 f6                	mov    %esi,%esi
    1039:	8d bc 27 00 00 00 00 	lea    0x0(%edi,%eiz,1),%edi

00001040 <__do_global_dtors_aux>:
    1040:	55                   	push   %ebp
    1041:	89 e5                	mov    %esp,%ebp
    1043:	53                   	push   %ebx
    1044:	e8 57 ff ff ff       	call   fa0 <__x86.get_pc_thunk.bx>
    1049:	81 c3 0f 5f 00 00    	add    $0x5f0f,%ebx
    104f:	83 ec 04             	sub    $0x4,%esp
    1052:	80 bb 2c 05 00 00 00 	cmpb   $0x0,0x52c(%ebx)
    1059:	75 27                	jne    1082 <__do_global_dtors_aux+0x42>
    105b:	8b 83 94 00 00 00    	mov    0x94(%ebx),%eax
    1061:	85 c0                	test   %eax,%eax
    1063:	74 11                	je     1076 <__do_global_dtors_aux+0x36>
    1065:	83 ec 0c             	sub    $0xc,%esp
    1068:	ff b3 ac 00 00 00    	pushl  0xac(%ebx)
    106e:	e8 dd fe ff ff       	call   f50 <__cxa_finalize@plt>
    1073:	83 c4 10             	add    $0x10,%esp
    1076:	e8 35 ff ff ff       	call   fb0 <deregister_tm_clones>
    107b:	c6 83 2c 05 00 00 01 	movb   $0x1,0x52c(%ebx)
    1082:	8b 5d fc             	mov    -0x4(%ebp),%ebx
    1085:	c9                   	leave  
    1086:	c3                   	ret    
    1087:	89 f6                	mov    %esi,%esi
    1089:	8d bc 27 00 00 00 00 	lea    0x0(%edi,%eiz,1),%edi

00001090 <frame_dummy>:
    1090:	55                   	push   %ebp
    1091:	89 e5                	mov    %esp,%ebp
    1093:	5d                   	pop    %ebp
    1094:	e9 57 ff ff ff       	jmp    ff0 <register_tm_clones>

00001099 <__x86.get_pc_thunk.dx>:
    1099:	8b 14 24             	mov    (%esp),%edx
    109c:	c3                   	ret    

0000109d <main>:
    109d:	8d 4c 24 04          	lea    0x4(%esp),%ecx
    10a1:	83 e4 f0             	and    $0xfffffff0,%esp
    10a4:	ff 71 fc             	pushl  -0x4(%ecx)
    10a7:	55                   	push   %ebp
    10a8:	89 e5                	mov    %esp,%ebp
    10aa:	57                   	push   %edi
    10ab:	56                   	push   %esi
    10ac:	53                   	push   %ebx
    10ad:	51                   	push   %ecx
    10ae:	81 ec 98 00 00 00    	sub    $0x98,%esp
    10b4:	e8 e7 fe ff ff       	call   fa0 <__x86.get_pc_thunk.bx>
    10b9:	81 c3 9f 5e 00 00    	add    $0x5e9f,%ebx
    10bf:	89 ce                	mov    %ecx,%esi
    10c1:	8b 46 04             	mov    0x4(%esi),%eax
    10c4:	89 85 64 ff ff ff    	mov    %eax,-0x9c(%ebp)
    10ca:	65 a1 14 00 00 00    	mov    %gs:0x14,%eax
    10d0:	89 45 e4             	mov    %eax,-0x1c(%ebp)
    10d3:	31 c0                	xor    %eax,%eax
    10d5:	c7 85 74 ff ff ff 00 	movl   $0x0,-0x8c(%ebp)
    10dc:	00 00 00 
    10df:	c7 85 78 ff ff ff 00 	movl   $0x0,-0x88(%ebp)
    10e6:	00 00 00 
    10e9:	c7 45 8c 00 00 00 00 	movl   $0x0,-0x74(%ebp)
    10f0:	c7 85 6c ff ff ff 00 	movl   $0x0,-0x94(%ebp)
    10f7:	00 00 00 
    10fa:	c7 45 90 00 00 00 00 	movl   $0x0,-0x70(%ebp)
    1101:	c7 45 94 00 00 00 00 	movl   $0x0,-0x6c(%ebp)
    1108:	c7 85 7c ff ff ff 01 	movl   $0x1,-0x84(%ebp)
    110f:	00 00 00 
    1112:	c7 45 80 00 00 00 00 	movl   $0x0,-0x80(%ebp)
    1119:	c7 45 84 00 00 00 00 	movl   $0x0,-0x7c(%ebp)
    1120:	e9 6e 01 00 00       	jmp    1293 <.L3+0xf>
    1125:	0f be 85 6b ff ff ff 	movsbl -0x95(%ebp),%eax
    112c:	83 e8 56             	sub    $0x56,%eax
    112f:	83 f8 20             	cmp    $0x20,%eax
    1132:	0f 87 4c 01 00 00    	ja     1284 <.L3>
    1138:	c1 e0 02             	shl    $0x2,%eax
    113b:	8b 84 18 10 d6 ff ff 	mov    -0x29f0(%eax,%ebx,1),%eax
    1142:	01 d8                	add    %ebx,%eax
    1144:	ff e0                	jmp    *%eax

00001146 <.L8>:
    1146:	c7 45 84 01 00 00 00 	movl   $0x1,-0x7c(%ebp)
    114d:	e9 41 01 00 00       	jmp    1293 <.L3+0xf>

00001152 <.L7>:
    1152:	c7 85 78 ff ff ff 01 	movl   $0x1,-0x88(%ebp)
    1159:	00 00 00 
    115c:	83 ec 08             	sub    $0x8,%esp
    115f:	6a 08                	push   $0x8
    1161:	ff b5 74 ff ff ff    	pushl  -0x8c(%ebp)
    1167:	e8 c4 fc ff ff       	call   e30 <realloc@plt>
    116c:	83 c4 10             	add    $0x10,%esp
    116f:	89 85 74 ff ff ff    	mov    %eax,-0x8c(%ebp)
    1175:	83 bd 74 ff ff ff 00 	cmpl   $0x0,-0x8c(%ebp)
    117c:	75 12                	jne    1190 <.L7+0x3e>
    117e:	83 ec 0c             	sub    $0xc,%esp
    1181:	8d 83 63 d3 ff ff    	lea    -0x2c9d(%ebx),%eax
    1187:	50                   	push   %eax
    1188:	e8 82 1e 00 00       	call   300f <unix_error>
    118d:	83 c4 10             	add    $0x10,%esp
    1190:	66 c7 83 c8 00 00 00 	movw   $0x2f2e,0xc8(%ebx)
    1197:	2e 2f 
    1199:	c6 83 ca 00 00 00 00 	movb   $0x0,0xca(%ebx)
    11a0:	8b 83 a4 00 00 00    	mov    0xa4(%ebx),%eax
    11a6:	8b 00                	mov    (%eax),%eax
    11a8:	83 ec 0c             	sub    $0xc,%esp
    11ab:	50                   	push   %eax
    11ac:	e8 ef fb ff ff       	call   da0 <strdup@plt>
    11b1:	83 c4 10             	add    $0x10,%esp
    11b4:	89 c2                	mov    %eax,%edx
    11b6:	8b 85 74 ff ff ff    	mov    -0x8c(%ebp),%eax
    11bc:	89 10                	mov    %edx,(%eax)
    11be:	8b 85 74 ff ff ff    	mov    -0x8c(%ebp),%eax
    11c4:	83 c0 04             	add    $0x4,%eax
    11c7:	c7 00 00 00 00 00    	movl   $0x0,(%eax)
    11cd:	e9 c1 00 00 00       	jmp    1293 <.L3+0xf>

000011d2 <.L11>:
    11d2:	83 bd 78 ff ff ff 01 	cmpl   $0x1,-0x88(%ebp)
    11d9:	75 05                	jne    11e0 <.L11+0xe>
    11db:	e9 b3 00 00 00       	jmp    1293 <.L3+0xf>
    11e0:	8b 83 a4 00 00 00    	mov    0xa4(%ebx),%eax
    11e6:	8b 00                	mov    (%eax),%eax
    11e8:	83 ec 08             	sub    $0x8,%esp
    11eb:	50                   	push   %eax
    11ec:	8d 83 c8 00 00 00    	lea    0xc8(%ebx),%eax
    11f2:	50                   	push   %eax
    11f3:	e8 28 fc ff ff       	call   e20 <strcpy@plt>
    11f8:	83 c4 10             	add    $0x10,%esp
    11fb:	83 ec 0c             	sub    $0xc,%esp
    11fe:	8d 83 c8 00 00 00    	lea    0xc8(%ebx),%eax
    1204:	50                   	push   %eax
    1205:	e8 76 fc ff ff       	call   e80 <strlen@plt>
    120a:	83 c4 10             	add    $0x10,%esp
    120d:	83 e8 01             	sub    $0x1,%eax
    1210:	0f b6 84 03 c8 00 00 	movzbl 0xc8(%ebx,%eax,1),%eax
    1217:	00 
    1218:	3c 2f                	cmp    $0x2f,%al
    121a:	74 77                	je     1293 <.L3+0xf>
    121c:	8d 83 c8 00 00 00    	lea    0xc8(%ebx),%eax
    1222:	b9 ff ff ff ff       	mov    $0xffffffff,%ecx
    1227:	89 c2                	mov    %eax,%edx
    1229:	b8 00 00 00 00       	mov    $0x0,%eax
    122e:	89 d7                	mov    %edx,%edi
    1230:	f2 ae                	repnz scas %es:(%edi),%al
    1232:	89 c8                	mov    %ecx,%eax
    1234:	f7 d0                	not    %eax
    1236:	8d 50 ff             	lea    -0x1(%eax),%edx
    1239:	8d 83 c8 00 00 00    	lea    0xc8(%ebx),%eax
    123f:	01 d0                	add    %edx,%eax
    1241:	66 c7 00 2f 00       	movw   $0x2f,(%eax)
    1246:	eb 4b                	jmp    1293 <.L3+0xf>

00001248 <.L6>:
    1248:	c7 85 7c ff ff ff 00 	movl   $0x0,-0x84(%ebp)
    124f:	00 00 00 
    1252:	eb 3f                	jmp    1293 <.L3+0xf>

00001254 <.L10>:
    1254:	c7 45 80 01 00 00 00 	movl   $0x1,-0x80(%ebp)
    125b:	eb 36                	jmp    1293 <.L3+0xf>

0000125d <.L12>:
    125d:	c7 83 30 05 00 00 01 	movl   $0x1,0x530(%ebx)
    1264:	00 00 00 
    1267:	eb 2a                	jmp    1293 <.L3+0xf>

00001269 <.L4>:
    1269:	c7 83 30 05 00 00 02 	movl   $0x2,0x530(%ebx)
    1270:	00 00 00 
    1273:	eb 1e                	jmp    1293 <.L3+0xf>

00001275 <.L9>:
    1275:	e8 1e 1e 00 00       	call   3098 <usage>
    127a:	83 ec 0c             	sub    $0xc,%esp
    127d:	6a 00                	push   $0x0
    127f:	e8 ec fb ff ff       	call   e70 <exit@plt>

00001284 <.L3>:
    1284:	e8 0f 1e 00 00       	call   3098 <usage>
    1289:	83 ec 0c             	sub    $0xc,%esp
    128c:	6a 01                	push   $0x1
    128e:	e8 dd fb ff ff       	call   e70 <exit@plt>
    1293:	83 ec 04             	sub    $0x4,%esp
    1296:	8d 83 81 d3 ff ff    	lea    -0x2c7f(%ebx),%eax
    129c:	50                   	push   %eax
    129d:	ff b5 64 ff ff ff    	pushl  -0x9c(%ebp)
    12a3:	ff 36                	pushl  (%esi)
    12a5:	e8 f6 fb ff ff       	call   ea0 <getopt@plt>
    12aa:	83 c4 10             	add    $0x10,%esp
    12ad:	88 85 6b ff ff ff    	mov    %al,-0x95(%ebp)
    12b3:	80 bd 6b ff ff ff ff 	cmpb   $0xff,-0x95(%ebp)
    12ba:	0f 85 65 fe ff ff    	jne    1125 <main+0x88>
    12c0:	83 bd 7c ff ff ff 00 	cmpl   $0x0,-0x84(%ebp)
    12c7:	0f 84 3d 01 00 00    	je     140a <.L3+0x186>
    12cd:	8d 83 f8 04 00 00    	lea    0x4f8(%ebx),%eax
    12d3:	8b 00                	mov    (%eax),%eax
    12d5:	0f b6 00             	movzbl (%eax),%eax
    12d8:	0f b6 c0             	movzbl %al,%eax
    12db:	85 c0                	test   %eax,%eax
    12dd:	75 1c                	jne    12fb <.L3+0x77>
    12df:	83 ec 0c             	sub    $0xc,%esp
    12e2:	8d 83 8c d3 ff ff    	lea    -0x2c74(%ebx),%eax
    12e8:	50                   	push   %eax
    12e9:	e8 62 fb ff ff       	call   e50 <puts@plt>
    12ee:	83 c4 10             	add    $0x10,%esp
    12f1:	83 ec 0c             	sub    $0xc,%esp
    12f4:	6a 01                	push   $0x1
    12f6:	e8 75 fb ff ff       	call   e70 <exit@plt>
    12fb:	8d 83 f8 04 00 00    	lea    0x4f8(%ebx),%eax
    1301:	8b 00                	mov    (%eax),%eax
    1303:	83 ec 08             	sub    $0x8,%esp
    1306:	50                   	push   %eax
    1307:	8d 83 cb d3 ff ff    	lea    -0x2c35(%ebx),%eax
    130d:	50                   	push   %eax
    130e:	e8 4d fa ff ff       	call   d60 <printf@plt>
    1313:	83 c4 10             	add    $0x10,%esp
    1316:	8d 83 f8 04 00 00    	lea    0x4f8(%ebx),%eax
    131c:	8b 40 04             	mov    0x4(%eax),%eax
    131f:	0f b6 00             	movzbl (%eax),%eax
    1322:	84 c0                	test   %al,%al
    1324:	74 10                	je     1336 <.L3+0xb2>
    1326:	8d 83 f8 04 00 00    	lea    0x4f8(%ebx),%eax
    132c:	8b 40 08             	mov    0x8(%eax),%eax
    132f:	0f b6 00             	movzbl (%eax),%eax
    1332:	84 c0                	test   %al,%al
    1334:	75 1c                	jne    1352 <.L3+0xce>
    1336:	83 ec 0c             	sub    $0xc,%esp
    1339:	8d 83 dc d3 ff ff    	lea    -0x2c24(%ebx),%eax
    133f:	50                   	push   %eax
    1340:	e8 0b fb ff ff       	call   e50 <puts@plt>
    1345:	83 c4 10             	add    $0x10,%esp
    1348:	83 ec 0c             	sub    $0xc,%esp
    134b:	6a 01                	push   $0x1
    134d:	e8 1e fb ff ff       	call   e70 <exit@plt>
    1352:	8d 83 f8 04 00 00    	lea    0x4f8(%ebx),%eax
    1358:	8b 50 08             	mov    0x8(%eax),%edx
    135b:	8d 83 f8 04 00 00    	lea    0x4f8(%ebx),%eax
    1361:	8b 40 04             	mov    0x4(%eax),%eax
    1364:	83 ec 04             	sub    $0x4,%esp
    1367:	52                   	push   %edx
    1368:	50                   	push   %eax
    1369:	8d 83 0f d4 ff ff    	lea    -0x2bf1(%ebx),%eax
    136f:	50                   	push   %eax
    1370:	e8 eb f9 ff ff       	call   d60 <printf@plt>
    1375:	83 c4 10             	add    $0x10,%esp
    1378:	8d 83 f8 04 00 00    	lea    0x4f8(%ebx),%eax
    137e:	8b 40 0c             	mov    0xc(%eax),%eax
    1381:	0f b6 00             	movzbl (%eax),%eax
    1384:	84 c0                	test   %al,%al
    1386:	74 10                	je     1398 <.L3+0x114>
    1388:	8d 83 f8 04 00 00    	lea    0x4f8(%ebx),%eax
    138e:	8b 40 10             	mov    0x10(%eax),%eax
    1391:	0f b6 00             	movzbl (%eax),%eax
    1394:	84 c0                	test   %al,%al
    1396:	74 20                	je     13b8 <.L3+0x134>
    1398:	8d 83 f8 04 00 00    	lea    0x4f8(%ebx),%eax
    139e:	8b 40 0c             	mov    0xc(%eax),%eax
    13a1:	0f b6 00             	movzbl (%eax),%eax
    13a4:	84 c0                	test   %al,%al
    13a6:	75 2c                	jne    13d4 <.L3+0x150>
    13a8:	8d 83 f8 04 00 00    	lea    0x4f8(%ebx),%eax
    13ae:	8b 40 10             	mov    0x10(%eax),%eax
    13b1:	0f b6 00             	movzbl (%eax),%eax
    13b4:	84 c0                	test   %al,%al
    13b6:	74 1c                	je     13d4 <.L3+0x150>
    13b8:	83 ec 0c             	sub    $0xc,%esp
    13bb:	8d 83 20 d4 ff ff    	lea    -0x2be0(%ebx),%eax
    13c1:	50                   	push   %eax
    13c2:	e8 89 fa ff ff       	call   e50 <puts@plt>
    13c7:	83 c4 10             	add    $0x10,%esp
    13ca:	83 ec 0c             	sub    $0xc,%esp
    13cd:	6a 01                	push   $0x1
    13cf:	e8 9c fa ff ff       	call   e70 <exit@plt>
    13d4:	8d 83 f8 04 00 00    	lea    0x4f8(%ebx),%eax
    13da:	8b 40 0c             	mov    0xc(%eax),%eax
    13dd:	0f b6 00             	movzbl (%eax),%eax
    13e0:	84 c0                	test   %al,%al
    13e2:	74 26                	je     140a <.L3+0x186>
    13e4:	8d 83 f8 04 00 00    	lea    0x4f8(%ebx),%eax
    13ea:	8b 50 10             	mov    0x10(%eax),%edx
    13ed:	8d 83 f8 04 00 00    	lea    0x4f8(%ebx),%eax
    13f3:	8b 40 0c             	mov    0xc(%eax),%eax
    13f6:	83 ec 04             	sub    $0x4,%esp
    13f9:	52                   	push   %edx
    13fa:	50                   	push   %eax
    13fb:	8d 83 65 d4 ff ff    	lea    -0x2b9b(%ebx),%eax
    1401:	50                   	push   %eax
    1402:	e8 59 f9 ff ff       	call   d60 <printf@plt>
    1407:	83 c4 10             	add    $0x10,%esp
    140a:	83 bd 74 ff ff ff 00 	cmpl   $0x0,-0x8c(%ebp)
    1411:	75 2f                	jne    1442 <.L3+0x1be>
    1413:	8d 83 c8 04 00 00    	lea    0x4c8(%ebx),%eax
    1419:	89 85 74 ff ff ff    	mov    %eax,-0x8c(%ebp)
    141f:	c7 85 78 ff ff ff 0b 	movl   $0xb,-0x88(%ebp)
    1426:	00 00 00 
    1429:	83 ec 08             	sub    $0x8,%esp
    142c:	8d 83 c8 00 00 00    	lea    0xc8(%ebx),%eax
    1432:	50                   	push   %eax
    1433:	8d 83 78 d4 ff ff    	lea    -0x2b88(%ebx),%eax
    1439:	50                   	push   %eax
    143a:	e8 21 f9 ff ff       	call   d60 <printf@plt>
    143f:	83 c4 10             	add    $0x10,%esp
    1442:	e8 79 24 00 00       	call   38c0 <init_fsecs>
    1447:	83 7d 80 00          	cmpl   $0x0,-0x80(%ebp)
    144b:	0f 84 a4 01 00 00    	je     15f5 <.L3+0x371>
    1451:	8b 83 30 05 00 00    	mov    0x530(%ebx),%eax
    1457:	83 f8 01             	cmp    $0x1,%eax
    145a:	7e 12                	jle    146e <.L3+0x1ea>
    145c:	83 ec 0c             	sub    $0xc,%esp
    145f:	8d 83 98 d4 ff ff    	lea    -0x2b68(%ebx),%eax
    1465:	50                   	push   %eax
    1466:	e8 e5 f9 ff ff       	call   e50 <puts@plt>
    146b:	83 c4 10             	add    $0x10,%esp
    146e:	8b 85 78 ff ff ff    	mov    -0x88(%ebp),%eax
    1474:	83 ec 08             	sub    $0x8,%esp
    1477:	6a 1c                	push   $0x1c
    1479:	50                   	push   %eax
    147a:	e8 c1 fa ff ff       	call   f40 <calloc@plt>
    147f:	83 c4 10             	add    $0x10,%esp
    1482:	89 45 90             	mov    %eax,-0x70(%ebp)
    1485:	83 7d 90 00          	cmpl   $0x0,-0x70(%ebp)
    1489:	75 12                	jne    149d <.L3+0x219>
    148b:	83 ec 0c             	sub    $0xc,%esp
    148e:	8d 83 b0 d4 ff ff    	lea    -0x2b50(%ebx),%eax
    1494:	50                   	push   %eax
    1495:	e8 75 1b 00 00       	call   300f <unix_error>
    149a:	83 c4 10             	add    $0x10,%esp
    149d:	c7 85 70 ff ff ff 00 	movl   $0x0,-0x90(%ebp)
    14a4:	00 00 00 
    14a7:	e9 07 01 00 00       	jmp    15b3 <.L3+0x32f>
    14ac:	8b 85 70 ff ff ff    	mov    -0x90(%ebp),%eax
    14b2:	8d 14 85 00 00 00 00 	lea    0x0(,%eax,4),%edx
    14b9:	8b 85 74 ff ff ff    	mov    -0x8c(%ebp),%eax
    14bf:	01 d0                	add    %edx,%eax
    14c1:	8b 00                	mov    (%eax),%eax
    14c3:	83 ec 08             	sub    $0x8,%esp
    14c6:	50                   	push   %eax
    14c7:	8d 83 c8 00 00 00    	lea    0xc8(%ebx),%eax
    14cd:	50                   	push   %eax
    14ce:	e8 3e 08 00 00       	call   1d11 <read_trace>
    14d3:	83 c4 10             	add    $0x10,%esp
    14d6:	89 45 8c             	mov    %eax,-0x74(%ebp)
    14d9:	8b 45 8c             	mov    -0x74(%ebp),%eax
    14dc:	8b 48 08             	mov    0x8(%eax),%ecx
    14df:	8b 85 70 ff ff ff    	mov    -0x90(%ebp),%eax
    14e5:	6b d0 1c             	imul   $0x1c,%eax,%edx
    14e8:	8b 45 90             	mov    -0x70(%ebp),%eax
    14eb:	01 d0                	add    %edx,%eax
    14ed:	89 8d 60 ff ff ff    	mov    %ecx,-0xa0(%ebp)
    14f3:	db 85 60 ff ff ff    	fildl  -0xa0(%ebp)
    14f9:	dd 18                	fstpl  (%eax)
    14fb:	8b 83 30 05 00 00    	mov    0x530(%ebx),%eax
    1501:	83 f8 01             	cmp    $0x1,%eax
    1504:	7e 12                	jle    1518 <.L3+0x294>
    1506:	83 ec 0c             	sub    $0xc,%esp
    1509:	8d 83 d4 d4 ff ff    	lea    -0x2b2c(%ebx),%eax
    150f:	50                   	push   %eax
    1510:	e8 4b f8 ff ff       	call   d60 <printf@plt>
    1515:	83 c4 10             	add    $0x10,%esp
    1518:	8b 85 70 ff ff ff    	mov    -0x90(%ebp),%eax
    151e:	6b d0 1c             	imul   $0x1c,%eax,%edx
    1521:	8b 45 90             	mov    -0x70(%ebp),%eax
    1524:	8d 34 02             	lea    (%edx,%eax,1),%esi
    1527:	83 ec 08             	sub    $0x8,%esp
    152a:	ff b5 70 ff ff ff    	pushl  -0x90(%ebp)
    1530:	ff 75 8c             	pushl  -0x74(%ebp)
    1533:	e8 e8 14 00 00       	call   2a20 <eval_libc_valid>
    1538:	83 c4 10             	add    $0x10,%esp
    153b:	89 46 08             	mov    %eax,0x8(%esi)
    153e:	8b 85 70 ff ff ff    	mov    -0x90(%ebp),%eax
    1544:	6b d0 1c             	imul   $0x1c,%eax,%edx
    1547:	8b 45 90             	mov    -0x70(%ebp),%eax
    154a:	01 d0                	add    %edx,%eax
    154c:	8b 40 08             	mov    0x8(%eax),%eax
    154f:	85 c0                	test   %eax,%eax
    1551:	74 4b                	je     159e <.L3+0x31a>
    1553:	8b 45 8c             	mov    -0x74(%ebp),%eax
    1556:	89 45 dc             	mov    %eax,-0x24(%ebp)
    1559:	8b 83 30 05 00 00    	mov    0x530(%ebx),%eax
    155f:	83 f8 01             	cmp    $0x1,%eax
    1562:	7e 12                	jle    1576 <.L3+0x2f2>
    1564:	83 ec 0c             	sub    $0xc,%esp
    1567:	8d 83 fb d4 ff ff    	lea    -0x2b05(%ebx),%eax
    156d:	50                   	push   %eax
    156e:	e8 dd f8 ff ff       	call   e50 <puts@plt>
    1573:	83 c4 10             	add    $0x10,%esp
    1576:	8b 85 70 ff ff ff    	mov    -0x90(%ebp),%eax
    157c:	6b d0 1c             	imul   $0x1c,%eax,%edx
    157f:	8b 45 90             	mov    -0x70(%ebp),%eax
    1582:	8d 34 02             	lea    (%edx,%eax,1),%esi
    1585:	83 ec 08             	sub    $0x8,%esp
    1588:	8d 45 dc             	lea    -0x24(%ebp),%eax
    158b:	50                   	push   %eax
    158c:	8d 83 af bc ff ff    	lea    -0x4351(%ebx),%eax
    1592:	50                   	push   %eax
    1593:	e8 58 23 00 00       	call   38f0 <fsecs>
    1598:	83 c4 10             	add    $0x10,%esp
    159b:	dd 5e 0c             	fstpl  0xc(%esi)
    159e:	83 ec 0c             	sub    $0xc,%esp
    15a1:	ff 75 8c             	pushl  -0x74(%ebp)
    15a4:	e8 bc 0c 00 00       	call   2265 <free_trace>
    15a9:	83 c4 10             	add    $0x10,%esp
    15ac:	83 85 70 ff ff ff 01 	addl   $0x1,-0x90(%ebp)
    15b3:	8b 85 70 ff ff ff    	mov    -0x90(%ebp),%eax
    15b9:	3b 85 78 ff ff ff    	cmp    -0x88(%ebp),%eax
    15bf:	0f 8c e7 fe ff ff    	jl     14ac <.L3+0x228>
    15c5:	8b 83 30 05 00 00    	mov    0x530(%ebx),%eax
    15cb:	85 c0                	test   %eax,%eax
    15cd:	74 26                	je     15f5 <.L3+0x371>
    15cf:	83 ec 0c             	sub    $0xc,%esp
    15d2:	8d 83 0c d5 ff ff    	lea    -0x2af4(%ebx),%eax
    15d8:	50                   	push   %eax
    15d9:	e8 72 f8 ff ff       	call   e50 <puts@plt>
    15de:	83 c4 10             	add    $0x10,%esp
    15e1:	83 ec 08             	sub    $0x8,%esp
    15e4:	ff 75 90             	pushl  -0x70(%ebp)
    15e7:	ff b5 78 ff ff ff    	pushl  -0x88(%ebp)
    15ed:	e8 bd 17 00 00       	call   2daf <printresults>
    15f2:	83 c4 10             	add    $0x10,%esp
    15f5:	8b 83 30 05 00 00    	mov    0x530(%ebx),%eax
    15fb:	83 f8 01             	cmp    $0x1,%eax
    15fe:	7e 12                	jle    1612 <.L3+0x38e>
    1600:	83 ec 0c             	sub    $0xc,%esp
    1603:	8d 83 26 d5 ff ff    	lea    -0x2ada(%ebx),%eax
    1609:	50                   	push   %eax
    160a:	e8 41 f8 ff ff       	call   e50 <puts@plt>
    160f:	83 c4 10             	add    $0x10,%esp
    1612:	8b 85 78 ff ff ff    	mov    -0x88(%ebp),%eax
    1618:	83 ec 08             	sub    $0x8,%esp
    161b:	6a 1c                	push   $0x1c
    161d:	50                   	push   %eax
    161e:	e8 1d f9 ff ff       	call   f40 <calloc@plt>
    1623:	83 c4 10             	add    $0x10,%esp
    1626:	89 45 94             	mov    %eax,-0x6c(%ebp)
    1629:	83 7d 94 00          	cmpl   $0x0,-0x6c(%ebp)
    162d:	75 12                	jne    1641 <.L3+0x3bd>
    162f:	83 ec 0c             	sub    $0xc,%esp
    1632:	8d 83 3c d5 ff ff    	lea    -0x2ac4(%ebx),%eax
    1638:	50                   	push   %eax
    1639:	e8 d1 19 00 00       	call   300f <unix_error>
    163e:	83 c4 10             	add    $0x10,%esp
    1641:	e8 3a 21 00 00       	call   3780 <mem_init>
    1646:	c7 85 70 ff ff ff 00 	movl   $0x0,-0x90(%ebp)
    164d:	00 00 00 
    1650:	e9 65 01 00 00       	jmp    17ba <.L3+0x536>
    1655:	8b 85 70 ff ff ff    	mov    -0x90(%ebp),%eax
    165b:	8d 14 85 00 00 00 00 	lea    0x0(,%eax,4),%edx
    1662:	8b 85 74 ff ff ff    	mov    -0x8c(%ebp),%eax
    1668:	01 d0                	add    %edx,%eax
    166a:	8b 00                	mov    (%eax),%eax
    166c:	83 ec 08             	sub    $0x8,%esp
    166f:	50                   	push   %eax
    1670:	8d 83 c8 00 00 00    	lea    0xc8(%ebx),%eax
    1676:	50                   	push   %eax
    1677:	e8 95 06 00 00       	call   1d11 <read_trace>
    167c:	83 c4 10             	add    $0x10,%esp
    167f:	89 45 8c             	mov    %eax,-0x74(%ebp)
    1682:	8b 45 8c             	mov    -0x74(%ebp),%eax
    1685:	8b 48 08             	mov    0x8(%eax),%ecx
    1688:	8b 85 70 ff ff ff    	mov    -0x90(%ebp),%eax
    168e:	6b d0 1c             	imul   $0x1c,%eax,%edx
    1691:	8b 45 94             	mov    -0x6c(%ebp),%eax
    1694:	01 d0                	add    %edx,%eax
    1696:	89 8d 60 ff ff ff    	mov    %ecx,-0xa0(%ebp)
    169c:	db 85 60 ff ff ff    	fildl  -0xa0(%ebp)
    16a2:	dd 18                	fstpl  (%eax)
    16a4:	8b 83 30 05 00 00    	mov    0x530(%ebx),%eax
    16aa:	83 f8 01             	cmp    $0x1,%eax
    16ad:	7e 12                	jle    16c1 <.L3+0x43d>
    16af:	83 ec 0c             	sub    $0xc,%esp
    16b2:	8d 83 5c d5 ff ff    	lea    -0x2aa4(%ebx),%eax
    16b8:	50                   	push   %eax
    16b9:	e8 a2 f6 ff ff       	call   d60 <printf@plt>
    16be:	83 c4 10             	add    $0x10,%esp
    16c1:	8b 85 70 ff ff ff    	mov    -0x90(%ebp),%eax
    16c7:	6b d0 1c             	imul   $0x1c,%eax,%edx
    16ca:	8b 45 94             	mov    -0x6c(%ebp),%eax
    16cd:	8d 34 02             	lea    (%edx,%eax,1),%esi
    16d0:	83 ec 04             	sub    $0x4,%esp
    16d3:	8d 85 6c ff ff ff    	lea    -0x94(%ebp),%eax
    16d9:	50                   	push   %eax
    16da:	ff b5 70 ff ff ff    	pushl  -0x90(%ebp)
    16e0:	ff 75 8c             	pushl  -0x74(%ebp)
    16e3:	e8 d9 0b 00 00       	call   22c1 <eval_mm_valid>
    16e8:	83 c4 10             	add    $0x10,%esp
    16eb:	89 46 08             	mov    %eax,0x8(%esi)
    16ee:	8b 85 70 ff ff ff    	mov    -0x90(%ebp),%eax
    16f4:	6b d0 1c             	imul   $0x1c,%eax,%edx
    16f7:	8b 45 94             	mov    -0x6c(%ebp),%eax
    16fa:	01 d0                	add    %edx,%eax
    16fc:	8b 40 08             	mov    0x8(%eax),%eax
    16ff:	85 c0                	test   %eax,%eax
    1701:	0f 84 9e 00 00 00    	je     17a5 <.L3+0x521>
    1707:	8b 83 30 05 00 00    	mov    0x530(%ebx),%eax
    170d:	83 f8 01             	cmp    $0x1,%eax
    1710:	7e 12                	jle    1724 <.L3+0x4a0>
    1712:	83 ec 0c             	sub    $0xc,%esp
    1715:	8d 83 81 d5 ff ff    	lea    -0x2a7f(%ebx),%eax
    171b:	50                   	push   %eax
    171c:	e8 3f f6 ff ff       	call   d60 <printf@plt>
    1721:	83 c4 10             	add    $0x10,%esp
    1724:	8b 85 70 ff ff ff    	mov    -0x90(%ebp),%eax
    172a:	6b d0 1c             	imul   $0x1c,%eax,%edx
    172d:	8b 45 94             	mov    -0x6c(%ebp),%eax
    1730:	8d 34 02             	lea    (%edx,%eax,1),%esi
    1733:	83 ec 04             	sub    $0x4,%esp
    1736:	8d 85 6c ff ff ff    	lea    -0x94(%ebp),%eax
    173c:	50                   	push   %eax
    173d:	ff b5 70 ff ff ff    	pushl  -0x90(%ebp)
    1743:	ff 75 8c             	pushl  -0x74(%ebp)
    1746:	e8 7a 0e 00 00       	call   25c5 <eval_mm_util>
    174b:	83 c4 10             	add    $0x10,%esp
    174e:	dd 5e 14             	fstpl  0x14(%esi)
    1751:	8b 45 8c             	mov    -0x74(%ebp),%eax
    1754:	89 45 dc             	mov    %eax,-0x24(%ebp)
    1757:	8b 85 6c ff ff ff    	mov    -0x94(%ebp),%eax
    175d:	89 45 e0             	mov    %eax,-0x20(%ebp)
    1760:	8b 83 30 05 00 00    	mov    0x530(%ebx),%eax
    1766:	83 f8 01             	cmp    $0x1,%eax
    1769:	7e 12                	jle    177d <.L3+0x4f9>
    176b:	83 ec 0c             	sub    $0xc,%esp
    176e:	8d 83 fb d4 ff ff    	lea    -0x2b05(%ebx),%eax
    1774:	50                   	push   %eax
    1775:	e8 d6 f6 ff ff       	call   e50 <puts@plt>
    177a:	83 c4 10             	add    $0x10,%esp
    177d:	8b 85 70 ff ff ff    	mov    -0x90(%ebp),%eax
    1783:	6b d0 1c             	imul   $0x1c,%eax,%edx
    1786:	8b 45 94             	mov    -0x6c(%ebp),%eax
    1789:	8d 34 02             	lea    (%edx,%eax,1),%esi
    178c:	83 ec 08             	sub    $0x8,%esp
    178f:	8d 45 dc             	lea    -0x24(%ebp),%eax
    1792:	50                   	push   %eax
    1793:	8d 83 ed b8 ff ff    	lea    -0x4713(%ebx),%eax
    1799:	50                   	push   %eax
    179a:	e8 51 21 00 00       	call   38f0 <fsecs>
    179f:	83 c4 10             	add    $0x10,%esp
    17a2:	dd 5e 0c             	fstpl  0xc(%esi)
    17a5:	83 ec 0c             	sub    $0xc,%esp
    17a8:	ff 75 8c             	pushl  -0x74(%ebp)
    17ab:	e8 b5 0a 00 00       	call   2265 <free_trace>
    17b0:	83 c4 10             	add    $0x10,%esp
    17b3:	83 85 70 ff ff ff 01 	addl   $0x1,-0x90(%ebp)
    17ba:	8b 85 70 ff ff ff    	mov    -0x90(%ebp),%eax
    17c0:	3b 85 78 ff ff ff    	cmp    -0x88(%ebp),%eax
    17c6:	0f 8c 89 fe ff ff    	jl     1655 <.L3+0x3d1>
    17cc:	8b 83 30 05 00 00    	mov    0x530(%ebx),%eax
    17d2:	85 c0                	test   %eax,%eax
    17d4:	74 33                	je     1809 <.L3+0x585>
    17d6:	83 ec 0c             	sub    $0xc,%esp
    17d9:	8d 83 8e d5 ff ff    	lea    -0x2a72(%ebx),%eax
    17df:	50                   	push   %eax
    17e0:	e8 6b f6 ff ff       	call   e50 <puts@plt>
    17e5:	83 c4 10             	add    $0x10,%esp
    17e8:	83 ec 08             	sub    $0x8,%esp
    17eb:	ff 75 94             	pushl  -0x6c(%ebp)
    17ee:	ff b5 78 ff ff ff    	pushl  -0x88(%ebp)
    17f4:	e8 b6 15 00 00       	call   2daf <printresults>
    17f9:	83 c4 10             	add    $0x10,%esp
    17fc:	83 ec 0c             	sub    $0xc,%esp
    17ff:	6a 0a                	push   $0xa
    1801:	e8 da f6 ff ff       	call   ee0 <putchar@plt>
    1806:	83 c4 10             	add    $0x10,%esp
    1809:	d9 ee                	fldz   
    180b:	dd 5d 98             	fstpl  -0x68(%ebp)
    180e:	d9 ee                	fldz   
    1810:	dd 5d a0             	fstpl  -0x60(%ebp)
    1813:	d9 ee                	fldz   
    1815:	dd 5d a8             	fstpl  -0x58(%ebp)
    1818:	c7 45 88 00 00 00 00 	movl   $0x0,-0x78(%ebp)
    181f:	c7 85 70 ff ff ff 00 	movl   $0x0,-0x90(%ebp)
    1826:	00 00 00 
    1829:	eb 6a                	jmp    1895 <.L3+0x611>
    182b:	8b 85 70 ff ff ff    	mov    -0x90(%ebp),%eax
    1831:	6b d0 1c             	imul   $0x1c,%eax,%edx
    1834:	8b 45 94             	mov    -0x6c(%ebp),%eax
    1837:	01 d0                	add    %edx,%eax
    1839:	dd 40 0c             	fldl   0xc(%eax)
    183c:	dd 45 98             	fldl   -0x68(%ebp)
    183f:	de c1                	faddp  %st,%st(1)
    1841:	dd 5d 98             	fstpl  -0x68(%ebp)
    1844:	8b 85 70 ff ff ff    	mov    -0x90(%ebp),%eax
    184a:	6b d0 1c             	imul   $0x1c,%eax,%edx
    184d:	8b 45 94             	mov    -0x6c(%ebp),%eax
    1850:	01 d0                	add    %edx,%eax
    1852:	dd 00                	fldl   (%eax)
    1854:	dd 45 a0             	fldl   -0x60(%ebp)
    1857:	de c1                	faddp  %st,%st(1)
    1859:	dd 5d a0             	fstpl  -0x60(%ebp)
    185c:	8b 85 70 ff ff ff    	mov    -0x90(%ebp),%eax
    1862:	6b d0 1c             	imul   $0x1c,%eax,%edx
    1865:	8b 45 94             	mov    -0x6c(%ebp),%eax
    1868:	01 d0                	add    %edx,%eax
    186a:	dd 40 14             	fldl   0x14(%eax)
    186d:	dd 45 a8             	fldl   -0x58(%ebp)
    1870:	de c1                	faddp  %st,%st(1)
    1872:	dd 5d a8             	fstpl  -0x58(%ebp)
    1875:	8b 85 70 ff ff ff    	mov    -0x90(%ebp),%eax
    187b:	6b d0 1c             	imul   $0x1c,%eax,%edx
    187e:	8b 45 94             	mov    -0x6c(%ebp),%eax
    1881:	01 d0                	add    %edx,%eax
    1883:	8b 40 08             	mov    0x8(%eax),%eax
    1886:	85 c0                	test   %eax,%eax
    1888:	74 04                	je     188e <.L3+0x60a>
    188a:	83 45 88 01          	addl   $0x1,-0x78(%ebp)
    188e:	83 85 70 ff ff ff 01 	addl   $0x1,-0x90(%ebp)
    1895:	8b 85 70 ff ff ff    	mov    -0x90(%ebp),%eax
    189b:	3b 85 78 ff ff ff    	cmp    -0x88(%ebp),%eax
    18a1:	7c 88                	jl     182b <.L3+0x5a7>
    18a3:	db 85 78 ff ff ff    	fildl  -0x88(%ebp)
    18a9:	dd 45 a8             	fldl   -0x58(%ebp)
    18ac:	de f1                	fdivp  %st,%st(1)
    18ae:	dd 5d c0             	fstpl  -0x40(%ebp)
    18b1:	8b 83 34 05 00 00    	mov    0x534(%ebx),%eax
    18b7:	85 c0                	test   %eax,%eax
    18b9:	0f 85 98 00 00 00    	jne    1957 <.L3+0x6d3>
    18bf:	dd 45 a0             	fldl   -0x60(%ebp)
    18c2:	dc 75 98             	fdivl  -0x68(%ebp)
    18c5:	dd 5d c8             	fstpl  -0x38(%ebp)
    18c8:	dd 45 c0             	fldl   -0x40(%ebp)
    18cb:	dd 83 58 dd ff ff    	fldl   -0x22a8(%ebx)
    18d1:	de c9                	fmulp  %st,%st(1)
    18d3:	dd 5d d0             	fstpl  -0x30(%ebp)
    18d6:	dd 83 60 dd ff ff    	fldl   -0x22a0(%ebx)
    18dc:	dd 45 c8             	fldl   -0x38(%ebp)
    18df:	df e9                	fucomip %st(1),%st
    18e1:	dd d8                	fstp   %st(0)
    18e3:	76 0b                	jbe    18f0 <.L3+0x66c>
    18e5:	dd 83 68 dd ff ff    	fldl   -0x2298(%ebx)
    18eb:	dd 5d b0             	fstpl  -0x50(%ebp)
    18ee:	eb 16                	jmp    1906 <.L3+0x682>
    18f0:	dd 45 c8             	fldl   -0x38(%ebp)
    18f3:	dd 83 60 dd ff ff    	fldl   -0x22a0(%ebx)
    18f9:	de f9                	fdivrp %st,%st(1)
    18fb:	dd 83 68 dd ff ff    	fldl   -0x2298(%ebx)
    1901:	de c9                	fmulp  %st,%st(1)
    1903:	dd 5d b0             	fstpl  -0x50(%ebp)
    1906:	dd 45 d0             	fldl   -0x30(%ebp)
    1909:	dc 45 b0             	faddl  -0x50(%ebp)
    190c:	dd 83 70 dd ff ff    	fldl   -0x2290(%ebx)
    1912:	de c9                	fmulp  %st,%st(1)
    1914:	dd 5d b8             	fstpl  -0x48(%ebp)
    1917:	dd 45 b0             	fldl   -0x50(%ebp)
    191a:	dd 83 70 dd ff ff    	fldl   -0x2290(%ebx)
    1920:	de c9                	fmulp  %st,%st(1)
    1922:	dd 45 d0             	fldl   -0x30(%ebp)
    1925:	dd 83 70 dd ff ff    	fldl   -0x2290(%ebx)
    192b:	de c9                	fmulp  %st,%st(1)
    192d:	d9 c9                	fxch   %st(1)
    192f:	83 ec 04             	sub    $0x4,%esp
    1932:	ff 75 bc             	pushl  -0x44(%ebp)
    1935:	ff 75 b8             	pushl  -0x48(%ebp)
    1938:	8d 64 24 f8          	lea    -0x8(%esp),%esp
    193c:	dd 1c 24             	fstpl  (%esp)
    193f:	8d 64 24 f8          	lea    -0x8(%esp),%esp
    1943:	dd 1c 24             	fstpl  (%esp)
    1946:	8d 83 a8 d5 ff ff    	lea    -0x2a58(%ebx),%eax
    194c:	50                   	push   %eax
    194d:	e8 0e f4 ff ff       	call   d60 <printf@plt>
    1952:	83 c4 20             	add    $0x20,%esp
    1955:	eb 1e                	jmp    1975 <.L3+0x6f1>
    1957:	d9 ee                	fldz   
    1959:	dd 5d b8             	fstpl  -0x48(%ebp)
    195c:	8b 83 34 05 00 00    	mov    0x534(%ebx),%eax
    1962:	83 ec 08             	sub    $0x8,%esp
    1965:	50                   	push   %eax
    1966:	8d 83 db d5 ff ff    	lea    -0x2a25(%ebx),%eax
    196c:	50                   	push   %eax
    196d:	e8 ee f3 ff ff       	call   d60 <printf@plt>
    1972:	83 c4 10             	add    $0x10,%esp
    1975:	83 7d 84 00          	cmpl   $0x0,-0x7c(%ebp)
    1979:	74 2d                	je     19a8 <.L3+0x724>
    197b:	83 ec 08             	sub    $0x8,%esp
    197e:	ff 75 88             	pushl  -0x78(%ebp)
    1981:	8d 83 f6 d5 ff ff    	lea    -0x2a0a(%ebx),%eax
    1987:	50                   	push   %eax
    1988:	e8 d3 f3 ff ff       	call   d60 <printf@plt>
    198d:	83 c4 10             	add    $0x10,%esp
    1990:	83 ec 04             	sub    $0x4,%esp
    1993:	ff 75 bc             	pushl  -0x44(%ebp)
    1996:	ff 75 b8             	pushl  -0x48(%ebp)
    1999:	8d 83 02 d6 ff ff    	lea    -0x29fe(%ebx),%eax
    199f:	50                   	push   %eax
    19a0:	e8 bb f3 ff ff       	call   d60 <printf@plt>
    19a5:	83 c4 10             	add    $0x10,%esp
    19a8:	83 ec 0c             	sub    $0xc,%esp
    19ab:	6a 00                	push   $0x0
    19ad:	e8 be f4 ff ff       	call   e70 <exit@plt>

000019b2 <add_range>:
    19b2:	55                   	push   %ebp
    19b3:	89 e5                	mov    %esp,%ebp
    19b5:	56                   	push   %esi
    19b6:	53                   	push   %ebx
    19b7:	81 ec 20 04 00 00    	sub    $0x420,%esp
    19bd:	e8 de f5 ff ff       	call   fa0 <__x86.get_pc_thunk.bx>
    19c2:	81 c3 96 55 00 00    	add    $0x5596,%ebx
    19c8:	8b 45 08             	mov    0x8(%ebp),%eax
    19cb:	89 85 e4 fb ff ff    	mov    %eax,-0x41c(%ebp)
    19d1:	8b 45 0c             	mov    0xc(%ebp),%eax
    19d4:	89 85 e0 fb ff ff    	mov    %eax,-0x420(%ebp)
    19da:	65 a1 14 00 00 00    	mov    %gs:0x14,%eax
    19e0:	89 45 f4             	mov    %eax,-0xc(%ebp)
    19e3:	31 c0                	xor    %eax,%eax
    19e5:	8b 45 10             	mov    0x10(%ebp),%eax
    19e8:	8d 50 ff             	lea    -0x1(%eax),%edx
    19eb:	8b 85 e0 fb ff ff    	mov    -0x420(%ebp),%eax
    19f1:	01 d0                	add    %edx,%eax
    19f3:	89 85 f0 fb ff ff    	mov    %eax,-0x410(%ebp)
    19f9:	83 7d 10 00          	cmpl   $0x0,0x10(%ebp)
    19fd:	7f 1f                	jg     1a1e <add_range+0x6c>
    19ff:	8d 83 40 dd ff ff    	lea    -0x22c0(%ebx),%eax
    1a05:	50                   	push   %eax
    1a06:	68 86 01 00 00       	push   $0x186
    1a0b:	8d 83 94 d6 ff ff    	lea    -0x296c(%ebx),%eax
    1a11:	50                   	push   %eax
    1a12:	8d 83 9e d6 ff ff    	lea    -0x2962(%ebx),%eax
    1a18:	50                   	push   %eax
    1a19:	e8 12 f5 ff ff       	call   f30 <__assert_fail@plt>
    1a1e:	8b 85 e0 fb ff ff    	mov    -0x420(%ebp),%eax
    1a24:	83 e0 07             	and    $0x7,%eax
    1a27:	85 c0                	test   %eax,%eax
    1a29:	74 40                	je     1a6b <add_range+0xb9>
    1a2b:	6a 08                	push   $0x8
    1a2d:	ff b5 e0 fb ff ff    	pushl  -0x420(%ebp)
    1a33:	8d 83 a8 d6 ff ff    	lea    -0x2958(%ebx),%eax
    1a39:	50                   	push   %eax
    1a3a:	8d 85 f4 fb ff ff    	lea    -0x40c(%ebp),%eax
    1a40:	50                   	push   %eax
    1a41:	e8 ca f4 ff ff       	call   f10 <sprintf@plt>
    1a46:	83 c4 10             	add    $0x10,%esp
    1a49:	83 ec 04             	sub    $0x4,%esp
    1a4c:	8d 85 f4 fb ff ff    	lea    -0x40c(%ebp),%eax
    1a52:	50                   	push   %eax
    1a53:	ff 75 18             	pushl  0x18(%ebp)
    1a56:	ff 75 14             	pushl  0x14(%ebp)
    1a59:	e8 f6 15 00 00       	call   3054 <malloc_error>
    1a5e:	83 c4 10             	add    $0x10,%esp
    1a61:	b8 00 00 00 00       	mov    $0x0,%eax
    1a66:	e9 c3 01 00 00       	jmp    1c2e <add_range+0x27c>
    1a6b:	e8 10 1e 00 00       	call   3880 <mem_heap_lo>
    1a70:	39 85 e0 fb ff ff    	cmp    %eax,-0x420(%ebp)
    1a76:	72 27                	jb     1a9f <add_range+0xed>
    1a78:	e8 13 1e 00 00       	call   3890 <mem_heap_hi>
    1a7d:	39 85 e0 fb ff ff    	cmp    %eax,-0x420(%ebp)
    1a83:	77 1a                	ja     1a9f <add_range+0xed>
    1a85:	e8 f6 1d 00 00       	call   3880 <mem_heap_lo>
    1a8a:	39 85 f0 fb ff ff    	cmp    %eax,-0x410(%ebp)
    1a90:	72 0d                	jb     1a9f <add_range+0xed>
    1a92:	e8 f9 1d 00 00       	call   3890 <mem_heap_hi>
    1a97:	39 85 f0 fb ff ff    	cmp    %eax,-0x410(%ebp)
    1a9d:	76 55                	jbe    1af4 <add_range+0x142>
    1a9f:	e8 ec 1d 00 00       	call   3890 <mem_heap_hi>
    1aa4:	89 c6                	mov    %eax,%esi
    1aa6:	e8 d5 1d 00 00       	call   3880 <mem_heap_lo>
    1aab:	83 ec 08             	sub    $0x8,%esp
    1aae:	56                   	push   %esi
    1aaf:	50                   	push   %eax
    1ab0:	ff b5 f0 fb ff ff    	pushl  -0x410(%ebp)
    1ab6:	ff b5 e0 fb ff ff    	pushl  -0x420(%ebp)
    1abc:	8d 83 d8 d6 ff ff    	lea    -0x2928(%ebx),%eax
    1ac2:	50                   	push   %eax
    1ac3:	8d 85 f4 fb ff ff    	lea    -0x40c(%ebp),%eax
    1ac9:	50                   	push   %eax
    1aca:	e8 41 f4 ff ff       	call   f10 <sprintf@plt>
    1acf:	83 c4 20             	add    $0x20,%esp
    1ad2:	83 ec 04             	sub    $0x4,%esp
    1ad5:	8d 85 f4 fb ff ff    	lea    -0x40c(%ebp),%eax
    1adb:	50                   	push   %eax
    1adc:	ff 75 18             	pushl  0x18(%ebp)
    1adf:	ff 75 14             	pushl  0x14(%ebp)
    1ae2:	e8 6d 15 00 00       	call   3054 <malloc_error>
    1ae7:	83 c4 10             	add    $0x10,%esp
    1aea:	b8 00 00 00 00       	mov    $0x0,%eax
    1aef:	e9 3a 01 00 00       	jmp    1c2e <add_range+0x27c>
    1af4:	8b 85 e4 fb ff ff    	mov    -0x41c(%ebp),%eax
    1afa:	8b 00                	mov    (%eax),%eax
    1afc:	89 85 ec fb ff ff    	mov    %eax,-0x414(%ebp)
    1b02:	e9 ab 00 00 00       	jmp    1bb2 <add_range+0x200>
    1b07:	8b 85 ec fb ff ff    	mov    -0x414(%ebp),%eax
    1b0d:	8b 00                	mov    (%eax),%eax
    1b0f:	39 85 e0 fb ff ff    	cmp    %eax,-0x420(%ebp)
    1b15:	72 11                	jb     1b28 <add_range+0x176>
    1b17:	8b 85 ec fb ff ff    	mov    -0x414(%ebp),%eax
    1b1d:	8b 40 04             	mov    0x4(%eax),%eax
    1b20:	39 85 e0 fb ff ff    	cmp    %eax,-0x420(%ebp)
    1b26:	76 21                	jbe    1b49 <add_range+0x197>
    1b28:	8b 85 ec fb ff ff    	mov    -0x414(%ebp),%eax
    1b2e:	8b 00                	mov    (%eax),%eax
    1b30:	39 85 f0 fb ff ff    	cmp    %eax,-0x410(%ebp)
    1b36:	72 6b                	jb     1ba3 <add_range+0x1f1>
    1b38:	8b 85 ec fb ff ff    	mov    -0x414(%ebp),%eax
    1b3e:	8b 40 04             	mov    0x4(%eax),%eax
    1b41:	39 85 f0 fb ff ff    	cmp    %eax,-0x410(%ebp)
    1b47:	77 5a                	ja     1ba3 <add_range+0x1f1>
    1b49:	8b 85 ec fb ff ff    	mov    -0x414(%ebp),%eax
    1b4f:	8b 50 04             	mov    0x4(%eax),%edx
    1b52:	8b 85 ec fb ff ff    	mov    -0x414(%ebp),%eax
    1b58:	8b 00                	mov    (%eax),%eax
    1b5a:	83 ec 08             	sub    $0x8,%esp
    1b5d:	52                   	push   %edx
    1b5e:	50                   	push   %eax
    1b5f:	ff b5 f0 fb ff ff    	pushl  -0x410(%ebp)
    1b65:	ff b5 e0 fb ff ff    	pushl  -0x420(%ebp)
    1b6b:	8d 83 04 d7 ff ff    	lea    -0x28fc(%ebx),%eax
    1b71:	50                   	push   %eax
    1b72:	8d 85 f4 fb ff ff    	lea    -0x40c(%ebp),%eax
    1b78:	50                   	push   %eax
    1b79:	e8 92 f3 ff ff       	call   f10 <sprintf@plt>
    1b7e:	83 c4 20             	add    $0x20,%esp
    1b81:	83 ec 04             	sub    $0x4,%esp
    1b84:	8d 85 f4 fb ff ff    	lea    -0x40c(%ebp),%eax
    1b8a:	50                   	push   %eax
    1b8b:	ff 75 18             	pushl  0x18(%ebp)
    1b8e:	ff 75 14             	pushl  0x14(%ebp)
    1b91:	e8 be 14 00 00       	call   3054 <malloc_error>
    1b96:	83 c4 10             	add    $0x10,%esp
    1b99:	b8 00 00 00 00       	mov    $0x0,%eax
    1b9e:	e9 8b 00 00 00       	jmp    1c2e <add_range+0x27c>
    1ba3:	8b 85 ec fb ff ff    	mov    -0x414(%ebp),%eax
    1ba9:	8b 40 08             	mov    0x8(%eax),%eax
    1bac:	89 85 ec fb ff ff    	mov    %eax,-0x414(%ebp)
    1bb2:	83 bd ec fb ff ff 00 	cmpl   $0x0,-0x414(%ebp)
    1bb9:	0f 85 48 ff ff ff    	jne    1b07 <add_range+0x155>
    1bbf:	83 ec 0c             	sub    $0xc,%esp
    1bc2:	6a 0c                	push   $0xc
    1bc4:	e8 77 f2 ff ff       	call   e40 <malloc@plt>
    1bc9:	83 c4 10             	add    $0x10,%esp
    1bcc:	89 85 ec fb ff ff    	mov    %eax,-0x414(%ebp)
    1bd2:	83 bd ec fb ff ff 00 	cmpl   $0x0,-0x414(%ebp)
    1bd9:	75 12                	jne    1bed <add_range+0x23b>
    1bdb:	83 ec 0c             	sub    $0xc,%esp
    1bde:	8d 83 36 d7 ff ff    	lea    -0x28ca(%ebx),%eax
    1be4:	50                   	push   %eax
    1be5:	e8 25 14 00 00       	call   300f <unix_error>
    1bea:	83 c4 10             	add    $0x10,%esp
    1bed:	8b 85 e4 fb ff ff    	mov    -0x41c(%ebp),%eax
    1bf3:	8b 10                	mov    (%eax),%edx
    1bf5:	8b 85 ec fb ff ff    	mov    -0x414(%ebp),%eax
    1bfb:	89 50 08             	mov    %edx,0x8(%eax)
    1bfe:	8b 85 ec fb ff ff    	mov    -0x414(%ebp),%eax
    1c04:	8b 95 e0 fb ff ff    	mov    -0x420(%ebp),%edx
    1c0a:	89 10                	mov    %edx,(%eax)
    1c0c:	8b 85 ec fb ff ff    	mov    -0x414(%ebp),%eax
    1c12:	8b 95 f0 fb ff ff    	mov    -0x410(%ebp),%edx
    1c18:	89 50 04             	mov    %edx,0x4(%eax)
    1c1b:	8b 85 e4 fb ff ff    	mov    -0x41c(%ebp),%eax
    1c21:	8b 95 ec fb ff ff    	mov    -0x414(%ebp),%edx
    1c27:	89 10                	mov    %edx,(%eax)
    1c29:	b8 01 00 00 00       	mov    $0x1,%eax
    1c2e:	8b 4d f4             	mov    -0xc(%ebp),%ecx
    1c31:	65 33 0d 14 00 00 00 	xor    %gs:0x14,%ecx
    1c38:	74 05                	je     1c3f <add_range+0x28d>
    1c3a:	e8 a1 25 00 00       	call   41e0 <__stack_chk_fail_local>
    1c3f:	8d 65 f8             	lea    -0x8(%ebp),%esp
    1c42:	5b                   	pop    %ebx
    1c43:	5e                   	pop    %esi
    1c44:	5d                   	pop    %ebp
    1c45:	c3                   	ret    

00001c46 <remove_range>:
    1c46:	55                   	push   %ebp
    1c47:	89 e5                	mov    %esp,%ebp
    1c49:	53                   	push   %ebx
    1c4a:	83 ec 14             	sub    $0x14,%esp
    1c4d:	e8 76 15 00 00       	call   31c8 <__x86.get_pc_thunk.ax>
    1c52:	05 06 53 00 00       	add    $0x5306,%eax
    1c57:	8b 55 08             	mov    0x8(%ebp),%edx
    1c5a:	89 55 f0             	mov    %edx,-0x10(%ebp)
    1c5d:	8b 55 08             	mov    0x8(%ebp),%edx
    1c60:	8b 12                	mov    (%edx),%edx
    1c62:	89 55 ec             	mov    %edx,-0x14(%ebp)
    1c65:	eb 50                	jmp    1cb7 <remove_range+0x71>
    1c67:	8b 55 ec             	mov    -0x14(%ebp),%edx
    1c6a:	8b 12                	mov    (%edx),%edx
    1c6c:	39 55 0c             	cmp    %edx,0xc(%ebp)
    1c6f:	75 34                	jne    1ca5 <remove_range+0x5f>
    1c71:	8b 55 ec             	mov    -0x14(%ebp),%edx
    1c74:	8b 4a 08             	mov    0x8(%edx),%ecx
    1c77:	8b 55 f0             	mov    -0x10(%ebp),%edx
    1c7a:	89 0a                	mov    %ecx,(%edx)
    1c7c:	8b 55 ec             	mov    -0x14(%ebp),%edx
    1c7f:	8b 52 04             	mov    0x4(%edx),%edx
    1c82:	89 d1                	mov    %edx,%ecx
    1c84:	8b 55 ec             	mov    -0x14(%ebp),%edx
    1c87:	8b 12                	mov    (%edx),%edx
    1c89:	29 d1                	sub    %edx,%ecx
    1c8b:	89 ca                	mov    %ecx,%edx
    1c8d:	83 c2 01             	add    $0x1,%edx
    1c90:	89 55 f4             	mov    %edx,-0xc(%ebp)
    1c93:	83 ec 0c             	sub    $0xc,%esp
    1c96:	ff 75 ec             	pushl  -0x14(%ebp)
    1c99:	89 c3                	mov    %eax,%ebx
    1c9b:	e8 f0 f0 ff ff       	call   d90 <free@plt>
    1ca0:	83 c4 10             	add    $0x10,%esp
    1ca3:	eb 18                	jmp    1cbd <remove_range+0x77>
    1ca5:	8b 55 ec             	mov    -0x14(%ebp),%edx
    1ca8:	83 c2 08             	add    $0x8,%edx
    1cab:	89 55 f0             	mov    %edx,-0x10(%ebp)
    1cae:	8b 55 ec             	mov    -0x14(%ebp),%edx
    1cb1:	8b 52 08             	mov    0x8(%edx),%edx
    1cb4:	89 55 ec             	mov    %edx,-0x14(%ebp)
    1cb7:	83 7d ec 00          	cmpl   $0x0,-0x14(%ebp)
    1cbb:	75 aa                	jne    1c67 <remove_range+0x21>
    1cbd:	90                   	nop
    1cbe:	8b 5d fc             	mov    -0x4(%ebp),%ebx
    1cc1:	c9                   	leave  
    1cc2:	c3                   	ret    

00001cc3 <clear_ranges>:
    1cc3:	55                   	push   %ebp
    1cc4:	89 e5                	mov    %esp,%ebp
    1cc6:	53                   	push   %ebx
    1cc7:	83 ec 14             	sub    $0x14,%esp
    1cca:	e8 d1 f2 ff ff       	call   fa0 <__x86.get_pc_thunk.bx>
    1ccf:	81 c3 89 52 00 00    	add    $0x5289,%ebx
    1cd5:	8b 45 08             	mov    0x8(%ebp),%eax
    1cd8:	8b 00                	mov    (%eax),%eax
    1cda:	89 45 f0             	mov    %eax,-0x10(%ebp)
    1cdd:	eb 1d                	jmp    1cfc <clear_ranges+0x39>
    1cdf:	8b 45 f0             	mov    -0x10(%ebp),%eax
    1ce2:	8b 40 08             	mov    0x8(%eax),%eax
    1ce5:	89 45 f4             	mov    %eax,-0xc(%ebp)
    1ce8:	83 ec 0c             	sub    $0xc,%esp
    1ceb:	ff 75 f0             	pushl  -0x10(%ebp)
    1cee:	e8 9d f0 ff ff       	call   d90 <free@plt>
    1cf3:	83 c4 10             	add    $0x10,%esp
    1cf6:	8b 45 f4             	mov    -0xc(%ebp),%eax
    1cf9:	89 45 f0             	mov    %eax,-0x10(%ebp)
    1cfc:	83 7d f0 00          	cmpl   $0x0,-0x10(%ebp)
    1d00:	75 dd                	jne    1cdf <clear_ranges+0x1c>
    1d02:	8b 45 08             	mov    0x8(%ebp),%eax
    1d05:	c7 00 00 00 00 00    	movl   $0x0,(%eax)
    1d0b:	90                   	nop
    1d0c:	8b 5d fc             	mov    -0x4(%ebp),%ebx
    1d0f:	c9                   	leave  
    1d10:	c3                   	ret    

00001d11 <read_trace>:
    1d11:	55                   	push   %ebp
    1d12:	89 e5                	mov    %esp,%ebp
    1d14:	56                   	push   %esi
    1d15:	53                   	push   %ebx
    1d16:	81 ec 30 08 00 00    	sub    $0x830,%esp
    1d1c:	e8 7f f2 ff ff       	call   fa0 <__x86.get_pc_thunk.bx>
    1d21:	81 c3 37 52 00 00    	add    $0x5237,%ebx
    1d27:	8b 45 08             	mov    0x8(%ebp),%eax
    1d2a:	89 85 d4 f7 ff ff    	mov    %eax,-0x82c(%ebp)
    1d30:	8b 45 0c             	mov    0xc(%ebp),%eax
    1d33:	89 85 d0 f7 ff ff    	mov    %eax,-0x830(%ebp)
    1d39:	65 a1 14 00 00 00    	mov    %gs:0x14,%eax
    1d3f:	89 45 f4             	mov    %eax,-0xc(%ebp)
    1d42:	31 c0                	xor    %eax,%eax
    1d44:	c7 85 e4 f7 ff ff 00 	movl   $0x0,-0x81c(%ebp)
    1d4b:	00 00 00 
    1d4e:	8b 83 30 05 00 00    	mov    0x530(%ebx),%eax
    1d54:	83 f8 01             	cmp    $0x1,%eax
    1d57:	7e 18                	jle    1d71 <read_trace+0x60>
    1d59:	83 ec 08             	sub    $0x8,%esp
    1d5c:	ff b5 d0 f7 ff ff    	pushl  -0x830(%ebp)
    1d62:	8d 83 50 d7 ff ff    	lea    -0x28b0(%ebx),%eax
    1d68:	50                   	push   %eax
    1d69:	e8 f2 ef ff ff       	call   d60 <printf@plt>
    1d6e:	83 c4 10             	add    $0x10,%esp
    1d71:	83 ec 0c             	sub    $0xc,%esp
    1d74:	6a 1c                	push   $0x1c
    1d76:	e8 c5 f0 ff ff       	call   e40 <malloc@plt>
    1d7b:	83 c4 10             	add    $0x10,%esp
    1d7e:	89 85 ec f7 ff ff    	mov    %eax,-0x814(%ebp)
    1d84:	83 bd ec f7 ff ff 00 	cmpl   $0x0,-0x814(%ebp)
    1d8b:	75 12                	jne    1d9f <read_trace+0x8e>
    1d8d:	83 ec 0c             	sub    $0xc,%esp
    1d90:	8d 83 68 d7 ff ff    	lea    -0x2898(%ebx),%eax
    1d96:	50                   	push   %eax
    1d97:	e8 73 12 00 00       	call   300f <unix_error>
    1d9c:	83 c4 10             	add    $0x10,%esp
    1d9f:	83 ec 08             	sub    $0x8,%esp
    1da2:	ff b5 d4 f7 ff ff    	pushl  -0x82c(%ebp)
    1da8:	8d 85 f4 fb ff ff    	lea    -0x40c(%ebp),%eax
    1dae:	50                   	push   %eax
    1daf:	e8 6c f0 ff ff       	call   e20 <strcpy@plt>
    1db4:	83 c4 10             	add    $0x10,%esp
    1db7:	83 ec 08             	sub    $0x8,%esp
    1dba:	ff b5 d0 f7 ff ff    	pushl  -0x830(%ebp)
    1dc0:	8d 85 f4 fb ff ff    	lea    -0x40c(%ebp),%eax
    1dc6:	50                   	push   %eax
    1dc7:	e8 44 f0 ff ff       	call   e10 <strcat@plt>
    1dcc:	83 c4 10             	add    $0x10,%esp
    1dcf:	83 ec 08             	sub    $0x8,%esp
    1dd2:	8d 83 87 d7 ff ff    	lea    -0x2879(%ebx),%eax
    1dd8:	50                   	push   %eax
    1dd9:	8d 85 f4 fb ff ff    	lea    -0x40c(%ebp),%eax
    1ddf:	50                   	push   %eax
    1de0:	e8 db f0 ff ff       	call   ec0 <fopen@plt>
    1de5:	83 c4 10             	add    $0x10,%esp
    1de8:	89 85 f0 f7 ff ff    	mov    %eax,-0x810(%ebp)
    1dee:	83 bd f0 f7 ff ff 00 	cmpl   $0x0,-0x810(%ebp)
    1df5:	75 32                	jne    1e29 <read_trace+0x118>
    1df7:	83 ec 04             	sub    $0x4,%esp
    1dfa:	8d 85 f4 fb ff ff    	lea    -0x40c(%ebp),%eax
    1e00:	50                   	push   %eax
    1e01:	8d 83 8c d7 ff ff    	lea    -0x2874(%ebx),%eax
    1e07:	50                   	push   %eax
    1e08:	8d 83 c8 05 00 00    	lea    0x5c8(%ebx),%eax
    1e0e:	50                   	push   %eax
    1e0f:	e8 fc f0 ff ff       	call   f10 <sprintf@plt>
    1e14:	83 c4 10             	add    $0x10,%esp
    1e17:	83 ec 0c             	sub    $0xc,%esp
    1e1a:	8d 83 c8 05 00 00    	lea    0x5c8(%ebx),%eax
    1e20:	50                   	push   %eax
    1e21:	e8 e9 11 00 00       	call   300f <unix_error>
    1e26:	83 c4 10             	add    $0x10,%esp
    1e29:	8b 85 ec f7 ff ff    	mov    -0x814(%ebp),%eax
    1e2f:	83 ec 04             	sub    $0x4,%esp
    1e32:	50                   	push   %eax
    1e33:	8d 83 ac d7 ff ff    	lea    -0x2854(%ebx),%eax
    1e39:	50                   	push   %eax
    1e3a:	ff b5 f0 f7 ff ff    	pushl  -0x810(%ebp)
    1e40:	e8 3b ef ff ff       	call   d80 <__isoc99_fscanf@plt>
    1e45:	83 c4 10             	add    $0x10,%esp
    1e48:	8b 85 ec f7 ff ff    	mov    -0x814(%ebp),%eax
    1e4e:	83 c0 04             	add    $0x4,%eax
    1e51:	83 ec 04             	sub    $0x4,%esp
    1e54:	50                   	push   %eax
    1e55:	8d 83 ac d7 ff ff    	lea    -0x2854(%ebx),%eax
    1e5b:	50                   	push   %eax
    1e5c:	ff b5 f0 f7 ff ff    	pushl  -0x810(%ebp)
    1e62:	e8 19 ef ff ff       	call   d80 <__isoc99_fscanf@plt>
    1e67:	83 c4 10             	add    $0x10,%esp
    1e6a:	8b 85 ec f7 ff ff    	mov    -0x814(%ebp),%eax
    1e70:	83 c0 08             	add    $0x8,%eax
    1e73:	83 ec 04             	sub    $0x4,%esp
    1e76:	50                   	push   %eax
    1e77:	8d 83 ac d7 ff ff    	lea    -0x2854(%ebx),%eax
    1e7d:	50                   	push   %eax
    1e7e:	ff b5 f0 f7 ff ff    	pushl  -0x810(%ebp)
    1e84:	e8 f7 ee ff ff       	call   d80 <__isoc99_fscanf@plt>
    1e89:	83 c4 10             	add    $0x10,%esp
    1e8c:	8b 85 ec f7 ff ff    	mov    -0x814(%ebp),%eax
    1e92:	83 c0 0c             	add    $0xc,%eax
    1e95:	83 ec 04             	sub    $0x4,%esp
    1e98:	50                   	push   %eax
    1e99:	8d 83 ac d7 ff ff    	lea    -0x2854(%ebx),%eax
    1e9f:	50                   	push   %eax
    1ea0:	ff b5 f0 f7 ff ff    	pushl  -0x810(%ebp)
    1ea6:	e8 d5 ee ff ff       	call   d80 <__isoc99_fscanf@plt>
    1eab:	83 c4 10             	add    $0x10,%esp
    1eae:	8b 85 ec f7 ff ff    	mov    -0x814(%ebp),%eax
    1eb4:	8b 40 08             	mov    0x8(%eax),%eax
    1eb7:	89 c2                	mov    %eax,%edx
    1eb9:	89 d0                	mov    %edx,%eax
    1ebb:	01 c0                	add    %eax,%eax
    1ebd:	01 d0                	add    %edx,%eax
    1ebf:	c1 e0 02             	shl    $0x2,%eax
    1ec2:	83 ec 0c             	sub    $0xc,%esp
    1ec5:	50                   	push   %eax
    1ec6:	e8 75 ef ff ff       	call   e40 <malloc@plt>
    1ecb:	83 c4 10             	add    $0x10,%esp
    1ece:	89 c2                	mov    %eax,%edx
    1ed0:	8b 85 ec f7 ff ff    	mov    -0x814(%ebp),%eax
    1ed6:	89 50 10             	mov    %edx,0x10(%eax)
    1ed9:	8b 85 ec f7 ff ff    	mov    -0x814(%ebp),%eax
    1edf:	8b 40 10             	mov    0x10(%eax),%eax
    1ee2:	85 c0                	test   %eax,%eax
    1ee4:	75 12                	jne    1ef8 <read_trace+0x1e7>
    1ee6:	83 ec 0c             	sub    $0xc,%esp
    1ee9:	8d 83 af d7 ff ff    	lea    -0x2851(%ebx),%eax
    1eef:	50                   	push   %eax
    1ef0:	e8 1a 11 00 00       	call   300f <unix_error>
    1ef5:	83 c4 10             	add    $0x10,%esp
    1ef8:	8b 85 ec f7 ff ff    	mov    -0x814(%ebp),%eax
    1efe:	8b 40 04             	mov    0x4(%eax),%eax
    1f01:	c1 e0 02             	shl    $0x2,%eax
    1f04:	83 ec 0c             	sub    $0xc,%esp
    1f07:	50                   	push   %eax
    1f08:	e8 33 ef ff ff       	call   e40 <malloc@plt>
    1f0d:	83 c4 10             	add    $0x10,%esp
    1f10:	89 c2                	mov    %eax,%edx
    1f12:	8b 85 ec f7 ff ff    	mov    -0x814(%ebp),%eax
    1f18:	89 50 14             	mov    %edx,0x14(%eax)
    1f1b:	8b 85 ec f7 ff ff    	mov    -0x814(%ebp),%eax
    1f21:	8b 40 14             	mov    0x14(%eax),%eax
    1f24:	85 c0                	test   %eax,%eax
    1f26:	75 12                	jne    1f3a <read_trace+0x229>
    1f28:	83 ec 0c             	sub    $0xc,%esp
    1f2b:	8d 83 cd d7 ff ff    	lea    -0x2833(%ebx),%eax
    1f31:	50                   	push   %eax
    1f32:	e8 d8 10 00 00       	call   300f <unix_error>
    1f37:	83 c4 10             	add    $0x10,%esp
    1f3a:	8b 85 ec f7 ff ff    	mov    -0x814(%ebp),%eax
    1f40:	8b 40 04             	mov    0x4(%eax),%eax
    1f43:	c1 e0 02             	shl    $0x2,%eax
    1f46:	83 ec 0c             	sub    $0xc,%esp
    1f49:	50                   	push   %eax
    1f4a:	e8 f1 ee ff ff       	call   e40 <malloc@plt>
    1f4f:	83 c4 10             	add    $0x10,%esp
    1f52:	89 c2                	mov    %eax,%edx
    1f54:	8b 85 ec f7 ff ff    	mov    -0x814(%ebp),%eax
    1f5a:	89 50 18             	mov    %edx,0x18(%eax)
    1f5d:	8b 85 ec f7 ff ff    	mov    -0x814(%ebp),%eax
    1f63:	8b 40 18             	mov    0x18(%eax),%eax
    1f66:	85 c0                	test   %eax,%eax
    1f68:	75 12                	jne    1f7c <read_trace+0x26b>
    1f6a:	83 ec 0c             	sub    $0xc,%esp
    1f6d:	8d 83 eb d7 ff ff    	lea    -0x2815(%ebx),%eax
    1f73:	50                   	push   %eax
    1f74:	e8 96 10 00 00       	call   300f <unix_error>
    1f79:	83 c4 10             	add    $0x10,%esp
    1f7c:	c7 85 dc f7 ff ff 00 	movl   $0x0,-0x824(%ebp)
    1f83:	00 00 00 
    1f86:	c7 85 e8 f7 ff ff 00 	movl   $0x0,-0x818(%ebp)
    1f8d:	00 00 00 
    1f90:	e9 16 02 00 00       	jmp    21ab <read_trace+0x49a>
    1f95:	0f b6 85 f4 f7 ff ff 	movzbl -0x80c(%ebp),%eax
    1f9c:	0f be c0             	movsbl %al,%eax
    1f9f:	83 f8 66             	cmp    $0x66,%eax
    1fa2:	0f 84 68 01 00 00    	je     2110 <read_trace+0x3ff>
    1fa8:	83 f8 72             	cmp    $0x72,%eax
    1fab:	0f 84 b4 00 00 00    	je     2065 <read_trace+0x354>
    1fb1:	83 f8 61             	cmp    $0x61,%eax
    1fb4:	0f 85 bc 01 00 00    	jne    2176 <read_trace+0x465>
    1fba:	8d 85 e0 f7 ff ff    	lea    -0x820(%ebp),%eax
    1fc0:	50                   	push   %eax
    1fc1:	8d 85 dc f7 ff ff    	lea    -0x824(%ebp),%eax
    1fc7:	50                   	push   %eax
    1fc8:	8d 83 09 d8 ff ff    	lea    -0x27f7(%ebx),%eax
    1fce:	50                   	push   %eax
    1fcf:	ff b5 f0 f7 ff ff    	pushl  -0x810(%ebp)
    1fd5:	e8 a6 ed ff ff       	call   d80 <__isoc99_fscanf@plt>
    1fda:	83 c4 10             	add    $0x10,%esp
    1fdd:	8b 85 ec f7 ff ff    	mov    -0x814(%ebp),%eax
    1fe3:	8b 48 10             	mov    0x10(%eax),%ecx
    1fe6:	8b 95 e8 f7 ff ff    	mov    -0x818(%ebp),%edx
    1fec:	89 d0                	mov    %edx,%eax
    1fee:	01 c0                	add    %eax,%eax
    1ff0:	01 d0                	add    %edx,%eax
    1ff2:	c1 e0 02             	shl    $0x2,%eax
    1ff5:	01 c8                	add    %ecx,%eax
    1ff7:	c7 00 00 00 00 00    	movl   $0x0,(%eax)
    1ffd:	8b 8d dc f7 ff ff    	mov    -0x824(%ebp),%ecx
    2003:	8b 85 ec f7 ff ff    	mov    -0x814(%ebp),%eax
    2009:	8b 70 10             	mov    0x10(%eax),%esi
    200c:	8b 95 e8 f7 ff ff    	mov    -0x818(%ebp),%edx
    2012:	89 d0                	mov    %edx,%eax
    2014:	01 c0                	add    %eax,%eax
    2016:	01 d0                	add    %edx,%eax
    2018:	c1 e0 02             	shl    $0x2,%eax
    201b:	01 f0                	add    %esi,%eax
    201d:	89 ca                	mov    %ecx,%edx
    201f:	89 50 04             	mov    %edx,0x4(%eax)
    2022:	8b 8d e0 f7 ff ff    	mov    -0x820(%ebp),%ecx
    2028:	8b 85 ec f7 ff ff    	mov    -0x814(%ebp),%eax
    202e:	8b 70 10             	mov    0x10(%eax),%esi
    2031:	8b 95 e8 f7 ff ff    	mov    -0x818(%ebp),%edx
    2037:	89 d0                	mov    %edx,%eax
    2039:	01 c0                	add    %eax,%eax
    203b:	01 d0                	add    %edx,%eax
    203d:	c1 e0 02             	shl    $0x2,%eax
    2040:	01 f0                	add    %esi,%eax
    2042:	89 ca                	mov    %ecx,%edx
    2044:	89 50 08             	mov    %edx,0x8(%eax)
    2047:	8b 85 dc f7 ff ff    	mov    -0x824(%ebp),%eax
    204d:	39 85 e4 f7 ff ff    	cmp    %eax,-0x81c(%ebp)
    2053:	0f 43 85 e4 f7 ff ff 	cmovae -0x81c(%ebp),%eax
    205a:	89 85 e4 f7 ff ff    	mov    %eax,-0x81c(%ebp)
    2060:	e9 3f 01 00 00       	jmp    21a4 <read_trace+0x493>
    2065:	8d 85 e0 f7 ff ff    	lea    -0x820(%ebp),%eax
    206b:	50                   	push   %eax
    206c:	8d 85 dc f7 ff ff    	lea    -0x824(%ebp),%eax
    2072:	50                   	push   %eax
    2073:	8d 83 09 d8 ff ff    	lea    -0x27f7(%ebx),%eax
    2079:	50                   	push   %eax
    207a:	ff b5 f0 f7 ff ff    	pushl  -0x810(%ebp)
    2080:	e8 fb ec ff ff       	call   d80 <__isoc99_fscanf@plt>
    2085:	83 c4 10             	add    $0x10,%esp
    2088:	8b 85 ec f7 ff ff    	mov    -0x814(%ebp),%eax
    208e:	8b 48 10             	mov    0x10(%eax),%ecx
    2091:	8b 95 e8 f7 ff ff    	mov    -0x818(%ebp),%edx
    2097:	89 d0                	mov    %edx,%eax
    2099:	01 c0                	add    %eax,%eax
    209b:	01 d0                	add    %edx,%eax
    209d:	c1 e0 02             	shl    $0x2,%eax
    20a0:	01 c8                	add    %ecx,%eax
    20a2:	c7 00 02 00 00 00    	movl   $0x2,(%eax)
    20a8:	8b 8d dc f7 ff ff    	mov    -0x824(%ebp),%ecx
    20ae:	8b 85 ec f7 ff ff    	mov    -0x814(%ebp),%eax
    20b4:	8b 70 10             	mov    0x10(%eax),%esi
    20b7:	8b 95 e8 f7 ff ff    	mov    -0x818(%ebp),%edx
    20bd:	89 d0                	mov    %edx,%eax
    20bf:	01 c0                	add    %eax,%eax
    20c1:	01 d0                	add    %edx,%eax
    20c3:	c1 e0 02             	shl    $0x2,%eax
    20c6:	01 f0                	add    %esi,%eax
    20c8:	89 ca                	mov    %ecx,%edx
    20ca:	89 50 04             	mov    %edx,0x4(%eax)
    20cd:	8b 8d e0 f7 ff ff    	mov    -0x820(%ebp),%ecx
    20d3:	8b 85 ec f7 ff ff    	mov    -0x814(%ebp),%eax
    20d9:	8b 70 10             	mov    0x10(%eax),%esi
    20dc:	8b 95 e8 f7 ff ff    	mov    -0x818(%ebp),%edx
    20e2:	89 d0                	mov    %edx,%eax
    20e4:	01 c0                	add    %eax,%eax
    20e6:	01 d0                	add    %edx,%eax
    20e8:	c1 e0 02             	shl    $0x2,%eax
    20eb:	01 f0                	add    %esi,%eax
    20ed:	89 ca                	mov    %ecx,%edx
    20ef:	89 50 08             	mov    %edx,0x8(%eax)
    20f2:	8b 85 dc f7 ff ff    	mov    -0x824(%ebp),%eax
    20f8:	39 85 e4 f7 ff ff    	cmp    %eax,-0x81c(%ebp)
    20fe:	0f 43 85 e4 f7 ff ff 	cmovae -0x81c(%ebp),%eax
    2105:	89 85 e4 f7 ff ff    	mov    %eax,-0x81c(%ebp)
    210b:	e9 94 00 00 00       	jmp    21a4 <read_trace+0x493>
    2110:	83 ec 04             	sub    $0x4,%esp
    2113:	8d 85 dc f7 ff ff    	lea    -0x824(%ebp),%eax
    2119:	50                   	push   %eax
    211a:	8d 83 0f d8 ff ff    	lea    -0x27f1(%ebx),%eax
    2120:	50                   	push   %eax
    2121:	ff b5 f0 f7 ff ff    	pushl  -0x810(%ebp)
    2127:	e8 54 ec ff ff       	call   d80 <__isoc99_fscanf@plt>
    212c:	83 c4 10             	add    $0x10,%esp
    212f:	8b 85 ec f7 ff ff    	mov    -0x814(%ebp),%eax
    2135:	8b 48 10             	mov    0x10(%eax),%ecx
    2138:	8b 95 e8 f7 ff ff    	mov    -0x818(%ebp),%edx
    213e:	89 d0                	mov    %edx,%eax
    2140:	01 c0                	add    %eax,%eax
    2142:	01 d0                	add    %edx,%eax
    2144:	c1 e0 02             	shl    $0x2,%eax
    2147:	01 c8                	add    %ecx,%eax
    2149:	c7 00 01 00 00 00    	movl   $0x1,(%eax)
    214f:	8b 8d dc f7 ff ff    	mov    -0x824(%ebp),%ecx
    2155:	8b 85 ec f7 ff ff    	mov    -0x814(%ebp),%eax
    215b:	8b 70 10             	mov    0x10(%eax),%esi
    215e:	8b 95 e8 f7 ff ff    	mov    -0x818(%ebp),%edx
    2164:	89 d0                	mov    %edx,%eax
    2166:	01 c0                	add    %eax,%eax
    2168:	01 d0                	add    %edx,%eax
    216a:	c1 e0 02             	shl    $0x2,%eax
    216d:	01 f0                	add    %esi,%eax
    216f:	89 ca                	mov    %ecx,%edx
    2171:	89 50 04             	mov    %edx,0x4(%eax)
    2174:	eb 2e                	jmp    21a4 <read_trace+0x493>
    2176:	0f b6 85 f4 f7 ff ff 	movzbl -0x80c(%ebp),%eax
    217d:	0f be c0             	movsbl %al,%eax
    2180:	83 ec 04             	sub    $0x4,%esp
    2183:	8d 95 f4 fb ff ff    	lea    -0x40c(%ebp),%edx
    2189:	52                   	push   %edx
    218a:	50                   	push   %eax
    218b:	8d 83 14 d8 ff ff    	lea    -0x27ec(%ebx),%eax
    2191:	50                   	push   %eax
    2192:	e8 c9 eb ff ff       	call   d60 <printf@plt>
    2197:	83 c4 10             	add    $0x10,%esp
    219a:	83 ec 0c             	sub    $0xc,%esp
    219d:	6a 01                	push   $0x1
    219f:	e8 cc ec ff ff       	call   e70 <exit@plt>
    21a4:	83 85 e8 f7 ff ff 01 	addl   $0x1,-0x818(%ebp)
    21ab:	83 ec 04             	sub    $0x4,%esp
    21ae:	8d 85 f4 f7 ff ff    	lea    -0x80c(%ebp),%eax
    21b4:	50                   	push   %eax
    21b5:	8d 83 3f d8 ff ff    	lea    -0x27c1(%ebx),%eax
    21bb:	50                   	push   %eax
    21bc:	ff b5 f0 f7 ff ff    	pushl  -0x810(%ebp)
    21c2:	e8 b9 eb ff ff       	call   d80 <__isoc99_fscanf@plt>
    21c7:	83 c4 10             	add    $0x10,%esp
    21ca:	83 f8 ff             	cmp    $0xffffffff,%eax
    21cd:	0f 85 c2 fd ff ff    	jne    1f95 <read_trace+0x284>
    21d3:	83 ec 0c             	sub    $0xc,%esp
    21d6:	ff b5 f0 f7 ff ff    	pushl  -0x810(%ebp)
    21dc:	e8 cf eb ff ff       	call   db0 <fclose@plt>
    21e1:	83 c4 10             	add    $0x10,%esp
    21e4:	8b 85 ec f7 ff ff    	mov    -0x814(%ebp),%eax
    21ea:	8b 40 04             	mov    0x4(%eax),%eax
    21ed:	83 e8 01             	sub    $0x1,%eax
    21f0:	39 85 e4 f7 ff ff    	cmp    %eax,-0x81c(%ebp)
    21f6:	74 1f                	je     2217 <read_trace+0x506>
    21f8:	8d 83 4c dd ff ff    	lea    -0x22b4(%ebx),%eax
    21fe:	50                   	push   %eax
    21ff:	68 29 02 00 00       	push   $0x229
    2204:	8d 83 94 d6 ff ff    	lea    -0x296c(%ebx),%eax
    220a:	50                   	push   %eax
    220b:	8d 83 44 d8 ff ff    	lea    -0x27bc(%ebx),%eax
    2211:	50                   	push   %eax
    2212:	e8 19 ed ff ff       	call   f30 <__assert_fail@plt>
    2217:	8b 85 ec f7 ff ff    	mov    -0x814(%ebp),%eax
    221d:	8b 40 08             	mov    0x8(%eax),%eax
    2220:	39 85 e8 f7 ff ff    	cmp    %eax,-0x818(%ebp)
    2226:	74 1f                	je     2247 <read_trace+0x536>
    2228:	8d 83 4c dd ff ff    	lea    -0x22b4(%ebx),%eax
    222e:	50                   	push   %eax
    222f:	68 2a 02 00 00       	push   $0x22a
    2234:	8d 83 94 d6 ff ff    	lea    -0x296c(%ebx),%eax
    223a:	50                   	push   %eax
    223b:	8d 83 64 d8 ff ff    	lea    -0x279c(%ebx),%eax
    2241:	50                   	push   %eax
    2242:	e8 e9 ec ff ff       	call   f30 <__assert_fail@plt>
    2247:	8b 85 ec f7 ff ff    	mov    -0x814(%ebp),%eax
    224d:	8b 75 f4             	mov    -0xc(%ebp),%esi
    2250:	65 33 35 14 00 00 00 	xor    %gs:0x14,%esi
    2257:	74 05                	je     225e <read_trace+0x54d>
    2259:	e8 82 1f 00 00       	call   41e0 <__stack_chk_fail_local>
    225e:	8d 65 f8             	lea    -0x8(%ebp),%esp
    2261:	5b                   	pop    %ebx
    2262:	5e                   	pop    %esi
    2263:	5d                   	pop    %ebp
    2264:	c3                   	ret    

00002265 <free_trace>:
    2265:	55                   	push   %ebp
    2266:	89 e5                	mov    %esp,%ebp
    2268:	53                   	push   %ebx
    2269:	83 ec 04             	sub    $0x4,%esp
    226c:	e8 2f ed ff ff       	call   fa0 <__x86.get_pc_thunk.bx>
    2271:	81 c3 e7 4c 00 00    	add    $0x4ce7,%ebx
    2277:	8b 45 08             	mov    0x8(%ebp),%eax
    227a:	8b 40 10             	mov    0x10(%eax),%eax
    227d:	83 ec 0c             	sub    $0xc,%esp
    2280:	50                   	push   %eax
    2281:	e8 0a eb ff ff       	call   d90 <free@plt>
    2286:	83 c4 10             	add    $0x10,%esp
    2289:	8b 45 08             	mov    0x8(%ebp),%eax
    228c:	8b 40 14             	mov    0x14(%eax),%eax
    228f:	83 ec 0c             	sub    $0xc,%esp
    2292:	50                   	push   %eax
    2293:	e8 f8 ea ff ff       	call   d90 <free@plt>
    2298:	83 c4 10             	add    $0x10,%esp
    229b:	8b 45 08             	mov    0x8(%ebp),%eax
    229e:	8b 40 18             	mov    0x18(%eax),%eax
    22a1:	83 ec 0c             	sub    $0xc,%esp
    22a4:	50                   	push   %eax
    22a5:	e8 e6 ea ff ff       	call   d90 <free@plt>
    22aa:	83 c4 10             	add    $0x10,%esp
    22ad:	83 ec 0c             	sub    $0xc,%esp
    22b0:	ff 75 08             	pushl  0x8(%ebp)
    22b3:	e8 d8 ea ff ff       	call   d90 <free@plt>
    22b8:	83 c4 10             	add    $0x10,%esp
    22bb:	90                   	nop
    22bc:	8b 5d fc             	mov    -0x4(%ebp),%ebx
    22bf:	c9                   	leave  
    22c0:	c3                   	ret    

000022c1 <eval_mm_valid>:
    22c1:	55                   	push   %ebp
    22c2:	89 e5                	mov    %esp,%ebp
    22c4:	53                   	push   %ebx
    22c5:	83 ec 24             	sub    $0x24,%esp
    22c8:	e8 d3 ec ff ff       	call   fa0 <__x86.get_pc_thunk.bx>
    22cd:	81 c3 8b 4c 00 00    	add    $0x4c8b,%ebx
    22d3:	e8 28 15 00 00       	call   3800 <mem_reset_brk>
    22d8:	83 ec 0c             	sub    $0xc,%esp
    22db:	ff 75 10             	pushl  0x10(%ebp)
    22de:	e8 e0 f9 ff ff       	call   1cc3 <clear_ranges>
    22e3:	83 c4 10             	add    $0x10,%esp
    22e6:	e8 e1 0e 00 00       	call   31cc <mm_init>
    22eb:	85 c0                	test   %eax,%eax
    22ed:	79 21                	jns    2310 <eval_mm_valid+0x4f>
    22ef:	83 ec 04             	sub    $0x4,%esp
    22f2:	8d 83 7f d8 ff ff    	lea    -0x2781(%ebx),%eax
    22f8:	50                   	push   %eax
    22f9:	6a 00                	push   $0x0
    22fb:	ff 75 0c             	pushl  0xc(%ebp)
    22fe:	e8 51 0d 00 00       	call   3054 <malloc_error>
    2303:	83 c4 10             	add    $0x10,%esp
    2306:	b8 00 00 00 00       	mov    $0x0,%eax
    230b:	e9 b0 02 00 00       	jmp    25c0 <eval_mm_valid+0x2ff>
    2310:	c7 45 d8 00 00 00 00 	movl   $0x0,-0x28(%ebp)
    2317:	e9 90 02 00 00       	jmp    25ac <eval_mm_valid+0x2eb>
    231c:	8b 45 08             	mov    0x8(%ebp),%eax
    231f:	8b 48 10             	mov    0x10(%eax),%ecx
    2322:	8b 55 d8             	mov    -0x28(%ebp),%edx
    2325:	89 d0                	mov    %edx,%eax
    2327:	01 c0                	add    %eax,%eax
    2329:	01 d0                	add    %edx,%eax
    232b:	c1 e0 02             	shl    $0x2,%eax
    232e:	01 c8                	add    %ecx,%eax
    2330:	8b 40 04             	mov    0x4(%eax),%eax
    2333:	89 45 e4             	mov    %eax,-0x1c(%ebp)
    2336:	8b 45 08             	mov    0x8(%ebp),%eax
    2339:	8b 48 10             	mov    0x10(%eax),%ecx
    233c:	8b 55 d8             	mov    -0x28(%ebp),%edx
    233f:	89 d0                	mov    %edx,%eax
    2341:	01 c0                	add    %eax,%eax
    2343:	01 d0                	add    %edx,%eax
    2345:	c1 e0 02             	shl    $0x2,%eax
    2348:	01 c8                	add    %ecx,%eax
    234a:	8b 40 08             	mov    0x8(%eax),%eax
    234d:	89 45 e8             	mov    %eax,-0x18(%ebp)
    2350:	8b 45 08             	mov    0x8(%ebp),%eax
    2353:	8b 48 10             	mov    0x10(%eax),%ecx
    2356:	8b 55 d8             	mov    -0x28(%ebp),%edx
    2359:	89 d0                	mov    %edx,%eax
    235b:	01 c0                	add    %eax,%eax
    235d:	01 d0                	add    %edx,%eax
    235f:	c1 e0 02             	shl    $0x2,%eax
    2362:	01 c8                	add    %ecx,%eax
    2364:	8b 00                	mov    (%eax),%eax
    2366:	83 f8 01             	cmp    $0x1,%eax
    2369:	0f 84 f3 01 00 00    	je     2562 <eval_mm_valid+0x2a1>
    236f:	83 f8 01             	cmp    $0x1,%eax
    2372:	72 0e                	jb     2382 <eval_mm_valid+0xc1>
    2374:	83 f8 02             	cmp    $0x2,%eax
    2377:	0f 84 ab 00 00 00    	je     2428 <eval_mm_valid+0x167>
    237d:	e9 14 02 00 00       	jmp    2596 <eval_mm_valid+0x2d5>
    2382:	8b 45 e8             	mov    -0x18(%ebp),%eax
    2385:	83 ec 0c             	sub    $0xc,%esp
    2388:	50                   	push   %eax
    2389:	e8 82 0f 00 00       	call   3310 <mm_malloc>
    238e:	83 c4 10             	add    $0x10,%esp
    2391:	89 45 f4             	mov    %eax,-0xc(%ebp)
    2394:	83 7d f4 00          	cmpl   $0x0,-0xc(%ebp)
    2398:	75 22                	jne    23bc <eval_mm_valid+0xfb>
    239a:	83 ec 04             	sub    $0x4,%esp
    239d:	8d 83 8f d8 ff ff    	lea    -0x2771(%ebx),%eax
    23a3:	50                   	push   %eax
    23a4:	ff 75 d8             	pushl  -0x28(%ebp)
    23a7:	ff 75 0c             	pushl  0xc(%ebp)
    23aa:	e8 a5 0c 00 00       	call   3054 <malloc_error>
    23af:	83 c4 10             	add    $0x10,%esp
    23b2:	b8 00 00 00 00       	mov    $0x0,%eax
    23b7:	e9 04 02 00 00       	jmp    25c0 <eval_mm_valid+0x2ff>
    23bc:	83 ec 0c             	sub    $0xc,%esp
    23bf:	ff 75 d8             	pushl  -0x28(%ebp)
    23c2:	ff 75 0c             	pushl  0xc(%ebp)
    23c5:	ff 75 e8             	pushl  -0x18(%ebp)
    23c8:	ff 75 f4             	pushl  -0xc(%ebp)
    23cb:	ff 75 10             	pushl  0x10(%ebp)
    23ce:	e8 df f5 ff ff       	call   19b2 <add_range>
    23d3:	83 c4 20             	add    $0x20,%esp
    23d6:	85 c0                	test   %eax,%eax
    23d8:	75 0a                	jne    23e4 <eval_mm_valid+0x123>
    23da:	b8 00 00 00 00       	mov    $0x0,%eax
    23df:	e9 dc 01 00 00       	jmp    25c0 <eval_mm_valid+0x2ff>
    23e4:	8b 55 e8             	mov    -0x18(%ebp),%edx
    23e7:	8b 45 e4             	mov    -0x1c(%ebp),%eax
    23ea:	0f b6 c0             	movzbl %al,%eax
    23ed:	83 ec 04             	sub    $0x4,%esp
    23f0:	52                   	push   %edx
    23f1:	50                   	push   %eax
    23f2:	ff 75 f4             	pushl  -0xc(%ebp)
    23f5:	e8 d6 ea ff ff       	call   ed0 <memset@plt>
    23fa:	83 c4 10             	add    $0x10,%esp
    23fd:	8b 45 08             	mov    0x8(%ebp),%eax
    2400:	8b 40 14             	mov    0x14(%eax),%eax
    2403:	8b 55 e4             	mov    -0x1c(%ebp),%edx
    2406:	c1 e2 02             	shl    $0x2,%edx
    2409:	01 c2                	add    %eax,%edx
    240b:	8b 45 f4             	mov    -0xc(%ebp),%eax
    240e:	89 02                	mov    %eax,(%edx)
    2410:	8b 45 08             	mov    0x8(%ebp),%eax
    2413:	8b 40 18             	mov    0x18(%eax),%eax
    2416:	8b 55 e4             	mov    -0x1c(%ebp),%edx
    2419:	c1 e2 02             	shl    $0x2,%edx
    241c:	01 c2                	add    %eax,%edx
    241e:	8b 45 e8             	mov    -0x18(%ebp),%eax
    2421:	89 02                	mov    %eax,(%edx)
    2423:	e9 80 01 00 00       	jmp    25a8 <eval_mm_valid+0x2e7>
    2428:	8b 45 08             	mov    0x8(%ebp),%eax
    242b:	8b 40 14             	mov    0x14(%eax),%eax
    242e:	8b 55 e4             	mov    -0x1c(%ebp),%edx
    2431:	c1 e2 02             	shl    $0x2,%edx
    2434:	01 d0                	add    %edx,%eax
    2436:	8b 00                	mov    (%eax),%eax
    2438:	89 45 ec             	mov    %eax,-0x14(%ebp)
    243b:	8b 45 e8             	mov    -0x18(%ebp),%eax
    243e:	83 ec 08             	sub    $0x8,%esp
    2441:	50                   	push   %eax
    2442:	ff 75 ec             	pushl  -0x14(%ebp)
    2445:	e8 1b 13 00 00       	call   3765 <mm_realloc>
    244a:	83 c4 10             	add    $0x10,%esp
    244d:	89 45 f0             	mov    %eax,-0x10(%ebp)
    2450:	83 7d f0 00          	cmpl   $0x0,-0x10(%ebp)
    2454:	75 22                	jne    2478 <eval_mm_valid+0x1b7>
    2456:	83 ec 04             	sub    $0x4,%esp
    2459:	8d 83 a1 d8 ff ff    	lea    -0x275f(%ebx),%eax
    245f:	50                   	push   %eax
    2460:	ff 75 d8             	pushl  -0x28(%ebp)
    2463:	ff 75 0c             	pushl  0xc(%ebp)
    2466:	e8 e9 0b 00 00       	call   3054 <malloc_error>
    246b:	83 c4 10             	add    $0x10,%esp
    246e:	b8 00 00 00 00       	mov    $0x0,%eax
    2473:	e9 48 01 00 00       	jmp    25c0 <eval_mm_valid+0x2ff>
    2478:	83 ec 08             	sub    $0x8,%esp
    247b:	ff 75 ec             	pushl  -0x14(%ebp)
    247e:	ff 75 10             	pushl  0x10(%ebp)
    2481:	e8 c0 f7 ff ff       	call   1c46 <remove_range>
    2486:	83 c4 10             	add    $0x10,%esp
    2489:	83 ec 0c             	sub    $0xc,%esp
    248c:	ff 75 d8             	pushl  -0x28(%ebp)
    248f:	ff 75 0c             	pushl  0xc(%ebp)
    2492:	ff 75 e8             	pushl  -0x18(%ebp)
    2495:	ff 75 f0             	pushl  -0x10(%ebp)
    2498:	ff 75 10             	pushl  0x10(%ebp)
    249b:	e8 12 f5 ff ff       	call   19b2 <add_range>
    24a0:	83 c4 20             	add    $0x20,%esp
    24a3:	85 c0                	test   %eax,%eax
    24a5:	75 0a                	jne    24b1 <eval_mm_valid+0x1f0>
    24a7:	b8 00 00 00 00       	mov    $0x0,%eax
    24ac:	e9 0f 01 00 00       	jmp    25c0 <eval_mm_valid+0x2ff>
    24b1:	8b 45 08             	mov    0x8(%ebp),%eax
    24b4:	8b 40 18             	mov    0x18(%eax),%eax
    24b7:	8b 55 e4             	mov    -0x1c(%ebp),%edx
    24ba:	c1 e2 02             	shl    $0x2,%edx
    24bd:	01 d0                	add    %edx,%eax
    24bf:	8b 00                	mov    (%eax),%eax
    24c1:	89 45 e0             	mov    %eax,-0x20(%ebp)
    24c4:	8b 45 e8             	mov    -0x18(%ebp),%eax
    24c7:	3b 45 e0             	cmp    -0x20(%ebp),%eax
    24ca:	7d 06                	jge    24d2 <eval_mm_valid+0x211>
    24cc:	8b 45 e8             	mov    -0x18(%ebp),%eax
    24cf:	89 45 e0             	mov    %eax,-0x20(%ebp)
    24d2:	c7 45 dc 00 00 00 00 	movl   $0x0,-0x24(%ebp)
    24d9:	eb 3e                	jmp    2519 <eval_mm_valid+0x258>
    24db:	8b 55 dc             	mov    -0x24(%ebp),%edx
    24de:	8b 45 f0             	mov    -0x10(%ebp),%eax
    24e1:	01 d0                	add    %edx,%eax
    24e3:	0f b6 00             	movzbl (%eax),%eax
    24e6:	0f be d0             	movsbl %al,%edx
    24e9:	8b 45 e4             	mov    -0x1c(%ebp),%eax
    24ec:	0f b6 c0             	movzbl %al,%eax
    24ef:	39 c2                	cmp    %eax,%edx
    24f1:	74 22                	je     2515 <eval_mm_valid+0x254>
    24f3:	83 ec 04             	sub    $0x4,%esp
    24f6:	8d 83 b4 d8 ff ff    	lea    -0x274c(%ebx),%eax
    24fc:	50                   	push   %eax
    24fd:	ff 75 d8             	pushl  -0x28(%ebp)
    2500:	ff 75 0c             	pushl  0xc(%ebp)
    2503:	e8 4c 0b 00 00       	call   3054 <malloc_error>
    2508:	83 c4 10             	add    $0x10,%esp
    250b:	b8 00 00 00 00       	mov    $0x0,%eax
    2510:	e9 ab 00 00 00       	jmp    25c0 <eval_mm_valid+0x2ff>
    2515:	83 45 dc 01          	addl   $0x1,-0x24(%ebp)
    2519:	8b 45 dc             	mov    -0x24(%ebp),%eax
    251c:	3b 45 e0             	cmp    -0x20(%ebp),%eax
    251f:	7c ba                	jl     24db <eval_mm_valid+0x21a>
    2521:	8b 55 e8             	mov    -0x18(%ebp),%edx
    2524:	8b 45 e4             	mov    -0x1c(%ebp),%eax
    2527:	0f b6 c0             	movzbl %al,%eax
    252a:	83 ec 04             	sub    $0x4,%esp
    252d:	52                   	push   %edx
    252e:	50                   	push   %eax
    252f:	ff 75 f0             	pushl  -0x10(%ebp)
    2532:	e8 99 e9 ff ff       	call   ed0 <memset@plt>
    2537:	83 c4 10             	add    $0x10,%esp
    253a:	8b 45 08             	mov    0x8(%ebp),%eax
    253d:	8b 40 14             	mov    0x14(%eax),%eax
    2540:	8b 55 e4             	mov    -0x1c(%ebp),%edx
    2543:	c1 e2 02             	shl    $0x2,%edx
    2546:	01 c2                	add    %eax,%edx
    2548:	8b 45 f0             	mov    -0x10(%ebp),%eax
    254b:	89 02                	mov    %eax,(%edx)
    254d:	8b 45 08             	mov    0x8(%ebp),%eax
    2550:	8b 40 18             	mov    0x18(%eax),%eax
    2553:	8b 55 e4             	mov    -0x1c(%ebp),%edx
    2556:	c1 e2 02             	shl    $0x2,%edx
    2559:	01 c2                	add    %eax,%edx
    255b:	8b 45 e8             	mov    -0x18(%ebp),%eax
    255e:	89 02                	mov    %eax,(%edx)
    2560:	eb 46                	jmp    25a8 <eval_mm_valid+0x2e7>
    2562:	8b 45 08             	mov    0x8(%ebp),%eax
    2565:	8b 40 14             	mov    0x14(%eax),%eax
    2568:	8b 55 e4             	mov    -0x1c(%ebp),%edx
    256b:	c1 e2 02             	shl    $0x2,%edx
    256e:	01 d0                	add    %edx,%eax
    2570:	8b 00                	mov    (%eax),%eax
    2572:	89 45 f4             	mov    %eax,-0xc(%ebp)
    2575:	83 ec 08             	sub    $0x8,%esp
    2578:	ff 75 f4             	pushl  -0xc(%ebp)
    257b:	ff 75 10             	pushl  0x10(%ebp)
    257e:	e8 c3 f6 ff ff       	call   1c46 <remove_range>
    2583:	83 c4 10             	add    $0x10,%esp
    2586:	83 ec 0c             	sub    $0xc,%esp
    2589:	ff 75 f4             	pushl  -0xc(%ebp)
    258c:	e8 74 0f 00 00       	call   3505 <mm_free>
    2591:	83 c4 10             	add    $0x10,%esp
    2594:	eb 12                	jmp    25a8 <eval_mm_valid+0x2e7>
    2596:	83 ec 0c             	sub    $0xc,%esp
    2599:	8d 83 e8 d8 ff ff    	lea    -0x2718(%ebx),%eax
    259f:	50                   	push   %eax
    25a0:	e8 40 0a 00 00       	call   2fe5 <app_error>
    25a5:	83 c4 10             	add    $0x10,%esp
    25a8:	83 45 d8 01          	addl   $0x1,-0x28(%ebp)
    25ac:	8b 45 08             	mov    0x8(%ebp),%eax
    25af:	8b 40 08             	mov    0x8(%eax),%eax
    25b2:	39 45 d8             	cmp    %eax,-0x28(%ebp)
    25b5:	0f 8c 61 fd ff ff    	jl     231c <eval_mm_valid+0x5b>
    25bb:	b8 01 00 00 00       	mov    $0x1,%eax
    25c0:	8b 5d fc             	mov    -0x4(%ebp),%ebx
    25c3:	c9                   	leave  
    25c4:	c3                   	ret    

000025c5 <eval_mm_util>:
    25c5:	55                   	push   %ebp
    25c6:	89 e5                	mov    %esp,%ebp
    25c8:	53                   	push   %ebx
    25c9:	83 ec 54             	sub    $0x54,%esp
    25cc:	e8 cf e9 ff ff       	call   fa0 <__x86.get_pc_thunk.bx>
    25d1:	81 c3 87 49 00 00    	add    $0x4987,%ebx
    25d7:	c7 45 d4 00 00 00 00 	movl   $0x0,-0x2c(%ebp)
    25de:	c7 45 d8 00 00 00 00 	movl   $0x0,-0x28(%ebp)
    25e5:	e8 16 12 00 00       	call   3800 <mem_reset_brk>
    25ea:	e8 dd 0b 00 00       	call   31cc <mm_init>
    25ef:	85 c0                	test   %eax,%eax
    25f1:	79 12                	jns    2605 <eval_mm_util+0x40>
    25f3:	83 ec 0c             	sub    $0xc,%esp
    25f6:	8d 83 14 d9 ff ff    	lea    -0x26ec(%ebx),%eax
    25fc:	50                   	push   %eax
    25fd:	e8 e3 09 00 00       	call   2fe5 <app_error>
    2602:	83 c4 10             	add    $0x10,%esp
    2605:	c7 45 d0 00 00 00 00 	movl   $0x0,-0x30(%ebp)
    260c:	e9 ff 01 00 00       	jmp    2810 <eval_mm_util+0x24b>
    2611:	8b 45 08             	mov    0x8(%ebp),%eax
    2614:	8b 48 10             	mov    0x10(%eax),%ecx
    2617:	8b 55 d0             	mov    -0x30(%ebp),%edx
    261a:	89 d0                	mov    %edx,%eax
    261c:	01 c0                	add    %eax,%eax
    261e:	01 d0                	add    %edx,%eax
    2620:	c1 e0 02             	shl    $0x2,%eax
    2623:	01 c8                	add    %ecx,%eax
    2625:	8b 00                	mov    (%eax),%eax
    2627:	83 f8 01             	cmp    $0x1,%eax
    262a:	0f 84 74 01 00 00    	je     27a4 <eval_mm_util+0x1df>
    2630:	83 f8 01             	cmp    $0x1,%eax
    2633:	72 0e                	jb     2643 <eval_mm_util+0x7e>
    2635:	83 f8 02             	cmp    $0x2,%eax
    2638:	0f 84 a1 00 00 00    	je     26df <eval_mm_util+0x11a>
    263e:	e9 b7 01 00 00       	jmp    27fa <eval_mm_util+0x235>
    2643:	8b 45 08             	mov    0x8(%ebp),%eax
    2646:	8b 48 10             	mov    0x10(%eax),%ecx
    2649:	8b 55 d0             	mov    -0x30(%ebp),%edx
    264c:	89 d0                	mov    %edx,%eax
    264e:	01 c0                	add    %eax,%eax
    2650:	01 d0                	add    %edx,%eax
    2652:	c1 e0 02             	shl    $0x2,%eax
    2655:	01 c8                	add    %ecx,%eax
    2657:	8b 40 04             	mov    0x4(%eax),%eax
    265a:	89 45 dc             	mov    %eax,-0x24(%ebp)
    265d:	8b 45 08             	mov    0x8(%ebp),%eax
    2660:	8b 48 10             	mov    0x10(%eax),%ecx
    2663:	8b 55 d0             	mov    -0x30(%ebp),%edx
    2666:	89 d0                	mov    %edx,%eax
    2668:	01 c0                	add    %eax,%eax
    266a:	01 d0                	add    %edx,%eax
    266c:	c1 e0 02             	shl    $0x2,%eax
    266f:	01 c8                	add    %ecx,%eax
    2671:	8b 40 08             	mov    0x8(%eax),%eax
    2674:	89 45 f0             	mov    %eax,-0x10(%ebp)
    2677:	8b 45 f0             	mov    -0x10(%ebp),%eax
    267a:	83 ec 0c             	sub    $0xc,%esp
    267d:	50                   	push   %eax
    267e:	e8 8d 0c 00 00       	call   3310 <mm_malloc>
    2683:	83 c4 10             	add    $0x10,%esp
    2686:	89 45 f4             	mov    %eax,-0xc(%ebp)
    2689:	83 7d f4 00          	cmpl   $0x0,-0xc(%ebp)
    268d:	75 12                	jne    26a1 <eval_mm_util+0xdc>
    268f:	83 ec 0c             	sub    $0xc,%esp
    2692:	8d 83 34 d9 ff ff    	lea    -0x26cc(%ebx),%eax
    2698:	50                   	push   %eax
    2699:	e8 47 09 00 00       	call   2fe5 <app_error>
    269e:	83 c4 10             	add    $0x10,%esp
    26a1:	8b 45 08             	mov    0x8(%ebp),%eax
    26a4:	8b 40 14             	mov    0x14(%eax),%eax
    26a7:	8b 55 dc             	mov    -0x24(%ebp),%edx
    26aa:	c1 e2 02             	shl    $0x2,%edx
    26ad:	01 c2                	add    %eax,%edx
    26af:	8b 45 f4             	mov    -0xc(%ebp),%eax
    26b2:	89 02                	mov    %eax,(%edx)
    26b4:	8b 45 08             	mov    0x8(%ebp),%eax
    26b7:	8b 40 18             	mov    0x18(%eax),%eax
    26ba:	8b 55 dc             	mov    -0x24(%ebp),%edx
    26bd:	c1 e2 02             	shl    $0x2,%edx
    26c0:	01 c2                	add    %eax,%edx
    26c2:	8b 45 f0             	mov    -0x10(%ebp),%eax
    26c5:	89 02                	mov    %eax,(%edx)
    26c7:	8b 45 f0             	mov    -0x10(%ebp),%eax
    26ca:	01 45 d8             	add    %eax,-0x28(%ebp)
    26cd:	8b 45 d8             	mov    -0x28(%ebp),%eax
    26d0:	39 45 d4             	cmp    %eax,-0x2c(%ebp)
    26d3:	0f 4d 45 d4          	cmovge -0x2c(%ebp),%eax
    26d7:	89 45 d4             	mov    %eax,-0x2c(%ebp)
    26da:	e9 2d 01 00 00       	jmp    280c <eval_mm_util+0x247>
    26df:	8b 45 08             	mov    0x8(%ebp),%eax
    26e2:	8b 48 10             	mov    0x10(%eax),%ecx
    26e5:	8b 55 d0             	mov    -0x30(%ebp),%edx
    26e8:	89 d0                	mov    %edx,%eax
    26ea:	01 c0                	add    %eax,%eax
    26ec:	01 d0                	add    %edx,%eax
    26ee:	c1 e0 02             	shl    $0x2,%eax
    26f1:	01 c8                	add    %ecx,%eax
    26f3:	8b 40 04             	mov    0x4(%eax),%eax
    26f6:	89 45 dc             	mov    %eax,-0x24(%ebp)
    26f9:	8b 45 08             	mov    0x8(%ebp),%eax
    26fc:	8b 48 10             	mov    0x10(%eax),%ecx
    26ff:	8b 55 d0             	mov    -0x30(%ebp),%edx
    2702:	89 d0                	mov    %edx,%eax
    2704:	01 c0                	add    %eax,%eax
    2706:	01 d0                	add    %edx,%eax
    2708:	c1 e0 02             	shl    $0x2,%eax
    270b:	01 c8                	add    %ecx,%eax
    270d:	8b 40 08             	mov    0x8(%eax),%eax
    2710:	89 45 e0             	mov    %eax,-0x20(%ebp)
    2713:	8b 45 08             	mov    0x8(%ebp),%eax
    2716:	8b 40 18             	mov    0x18(%eax),%eax
    2719:	8b 55 dc             	mov    -0x24(%ebp),%edx
    271c:	c1 e2 02             	shl    $0x2,%edx
    271f:	01 d0                	add    %edx,%eax
    2721:	8b 00                	mov    (%eax),%eax
    2723:	89 45 e4             	mov    %eax,-0x1c(%ebp)
    2726:	8b 45 08             	mov    0x8(%ebp),%eax
    2729:	8b 40 14             	mov    0x14(%eax),%eax
    272c:	8b 55 dc             	mov    -0x24(%ebp),%edx
    272f:	c1 e2 02             	shl    $0x2,%edx
    2732:	01 d0                	add    %edx,%eax
    2734:	8b 00                	mov    (%eax),%eax
    2736:	89 45 e8             	mov    %eax,-0x18(%ebp)
    2739:	8b 45 e0             	mov    -0x20(%ebp),%eax
    273c:	83 ec 08             	sub    $0x8,%esp
    273f:	50                   	push   %eax
    2740:	ff 75 e8             	pushl  -0x18(%ebp)
    2743:	e8 1d 10 00 00       	call   3765 <mm_realloc>
    2748:	83 c4 10             	add    $0x10,%esp
    274b:	89 45 ec             	mov    %eax,-0x14(%ebp)
    274e:	83 7d ec 00          	cmpl   $0x0,-0x14(%ebp)
    2752:	75 12                	jne    2766 <eval_mm_util+0x1a1>
    2754:	83 ec 0c             	sub    $0xc,%esp
    2757:	8d 83 58 d9 ff ff    	lea    -0x26a8(%ebx),%eax
    275d:	50                   	push   %eax
    275e:	e8 82 08 00 00       	call   2fe5 <app_error>
    2763:	83 c4 10             	add    $0x10,%esp
    2766:	8b 45 08             	mov    0x8(%ebp),%eax
    2769:	8b 40 14             	mov    0x14(%eax),%eax
    276c:	8b 55 dc             	mov    -0x24(%ebp),%edx
    276f:	c1 e2 02             	shl    $0x2,%edx
    2772:	01 c2                	add    %eax,%edx
    2774:	8b 45 ec             	mov    -0x14(%ebp),%eax
    2777:	89 02                	mov    %eax,(%edx)
    2779:	8b 45 08             	mov    0x8(%ebp),%eax
    277c:	8b 40 18             	mov    0x18(%eax),%eax
    277f:	8b 55 dc             	mov    -0x24(%ebp),%edx
    2782:	c1 e2 02             	shl    $0x2,%edx
    2785:	01 c2                	add    %eax,%edx
    2787:	8b 45 e0             	mov    -0x20(%ebp),%eax
    278a:	89 02                	mov    %eax,(%edx)
    278c:	8b 45 e0             	mov    -0x20(%ebp),%eax
    278f:	2b 45 e4             	sub    -0x1c(%ebp),%eax
    2792:	01 45 d8             	add    %eax,-0x28(%ebp)
    2795:	8b 45 d8             	mov    -0x28(%ebp),%eax
    2798:	39 45 d4             	cmp    %eax,-0x2c(%ebp)
    279b:	0f 4d 45 d4          	cmovge -0x2c(%ebp),%eax
    279f:	89 45 d4             	mov    %eax,-0x2c(%ebp)
    27a2:	eb 68                	jmp    280c <eval_mm_util+0x247>
    27a4:	8b 45 08             	mov    0x8(%ebp),%eax
    27a7:	8b 48 10             	mov    0x10(%eax),%ecx
    27aa:	8b 55 d0             	mov    -0x30(%ebp),%edx
    27ad:	89 d0                	mov    %edx,%eax
    27af:	01 c0                	add    %eax,%eax
    27b1:	01 d0                	add    %edx,%eax
    27b3:	c1 e0 02             	shl    $0x2,%eax
    27b6:	01 c8                	add    %ecx,%eax
    27b8:	8b 40 04             	mov    0x4(%eax),%eax
    27bb:	89 45 dc             	mov    %eax,-0x24(%ebp)
    27be:	8b 45 08             	mov    0x8(%ebp),%eax
    27c1:	8b 40 18             	mov    0x18(%eax),%eax
    27c4:	8b 55 dc             	mov    -0x24(%ebp),%edx
    27c7:	c1 e2 02             	shl    $0x2,%edx
    27ca:	01 d0                	add    %edx,%eax
    27cc:	8b 00                	mov    (%eax),%eax
    27ce:	89 45 f0             	mov    %eax,-0x10(%ebp)
    27d1:	8b 45 08             	mov    0x8(%ebp),%eax
    27d4:	8b 40 14             	mov    0x14(%eax),%eax
    27d7:	8b 55 dc             	mov    -0x24(%ebp),%edx
    27da:	c1 e2 02             	shl    $0x2,%edx
    27dd:	01 d0                	add    %edx,%eax
    27df:	8b 00                	mov    (%eax),%eax
    27e1:	89 45 f4             	mov    %eax,-0xc(%ebp)
    27e4:	83 ec 0c             	sub    $0xc,%esp
    27e7:	ff 75 f4             	pushl  -0xc(%ebp)
    27ea:	e8 16 0d 00 00       	call   3505 <mm_free>
    27ef:	83 c4 10             	add    $0x10,%esp
    27f2:	8b 45 f0             	mov    -0x10(%ebp),%eax
    27f5:	29 45 d8             	sub    %eax,-0x28(%ebp)
    27f8:	eb 12                	jmp    280c <eval_mm_util+0x247>
    27fa:	83 ec 0c             	sub    $0xc,%esp
    27fd:	8d 83 7c d9 ff ff    	lea    -0x2684(%ebx),%eax
    2803:	50                   	push   %eax
    2804:	e8 dc 07 00 00       	call   2fe5 <app_error>
    2809:	83 c4 10             	add    $0x10,%esp
    280c:	83 45 d0 01          	addl   $0x1,-0x30(%ebp)
    2810:	8b 45 08             	mov    0x8(%ebp),%eax
    2813:	8b 40 08             	mov    0x8(%eax),%eax
    2816:	39 45 d0             	cmp    %eax,-0x30(%ebp)
    2819:	0f 8c f2 fd ff ff    	jl     2611 <eval_mm_util+0x4c>
    281f:	db 45 d4             	fildl  -0x2c(%ebp)
    2822:	dd 5d b8             	fstpl  -0x48(%ebp)
    2825:	e8 76 10 00 00       	call   38a0 <mem_heapsize>
    282a:	89 45 b0             	mov    %eax,-0x50(%ebp)
    282d:	c7 45 b4 00 00 00 00 	movl   $0x0,-0x4c(%ebp)
    2834:	df 6d b0             	fildll -0x50(%ebp)
    2837:	dd 5d c0             	fstpl  -0x40(%ebp)
    283a:	dd 45 c0             	fldl   -0x40(%ebp)
    283d:	dc 7d b8             	fdivrl -0x48(%ebp)
    2840:	8b 5d fc             	mov    -0x4(%ebp),%ebx
    2843:	c9                   	leave  
    2844:	c3                   	ret    

00002845 <eval_mm_speed>:
    2845:	55                   	push   %ebp
    2846:	89 e5                	mov    %esp,%ebp
    2848:	53                   	push   %ebx
    2849:	83 ec 34             	sub    $0x34,%esp
    284c:	e8 4f e7 ff ff       	call   fa0 <__x86.get_pc_thunk.bx>
    2851:	81 c3 07 47 00 00    	add    $0x4707,%ebx
    2857:	8b 45 08             	mov    0x8(%ebp),%eax
    285a:	8b 00                	mov    (%eax),%eax
    285c:	89 45 d8             	mov    %eax,-0x28(%ebp)
    285f:	e8 9c 0f 00 00       	call   3800 <mem_reset_brk>
    2864:	e8 63 09 00 00       	call   31cc <mm_init>
    2869:	85 c0                	test   %eax,%eax
    286b:	79 12                	jns    287f <eval_mm_speed+0x3a>
    286d:	83 ec 0c             	sub    $0xc,%esp
    2870:	8d 83 a8 d9 ff ff    	lea    -0x2658(%ebx),%eax
    2876:	50                   	push   %eax
    2877:	e8 69 07 00 00       	call   2fe5 <app_error>
    287c:	83 c4 10             	add    $0x10,%esp
    287f:	c7 45 d4 00 00 00 00 	movl   $0x0,-0x2c(%ebp)
    2886:	e9 80 01 00 00       	jmp    2a0b <eval_mm_speed+0x1c6>
    288b:	8b 45 d8             	mov    -0x28(%ebp),%eax
    288e:	8b 48 10             	mov    0x10(%eax),%ecx
    2891:	8b 55 d4             	mov    -0x2c(%ebp),%edx
    2894:	89 d0                	mov    %edx,%eax
    2896:	01 c0                	add    %eax,%eax
    2898:	01 d0                	add    %edx,%eax
    289a:	c1 e0 02             	shl    $0x2,%eax
    289d:	01 c8                	add    %ecx,%eax
    289f:	8b 00                	mov    (%eax),%eax
    28a1:	83 f8 01             	cmp    $0x1,%eax
    28a4:	0f 84 0e 01 00 00    	je     29b8 <eval_mm_speed+0x173>
    28aa:	83 f8 01             	cmp    $0x1,%eax
    28ad:	72 0a                	jb     28b9 <eval_mm_speed+0x74>
    28af:	83 f8 02             	cmp    $0x2,%eax
    28b2:	74 7b                	je     292f <eval_mm_speed+0xea>
    28b4:	e9 3c 01 00 00       	jmp    29f5 <eval_mm_speed+0x1b0>
    28b9:	8b 45 d8             	mov    -0x28(%ebp),%eax
    28bc:	8b 48 10             	mov    0x10(%eax),%ecx
    28bf:	8b 55 d4             	mov    -0x2c(%ebp),%edx
    28c2:	89 d0                	mov    %edx,%eax
    28c4:	01 c0                	add    %eax,%eax
    28c6:	01 d0                	add    %edx,%eax
    28c8:	c1 e0 02             	shl    $0x2,%eax
    28cb:	01 c8                	add    %ecx,%eax
    28cd:	8b 40 04             	mov    0x4(%eax),%eax
    28d0:	89 45 dc             	mov    %eax,-0x24(%ebp)
    28d3:	8b 45 d8             	mov    -0x28(%ebp),%eax
    28d6:	8b 48 10             	mov    0x10(%eax),%ecx
    28d9:	8b 55 d4             	mov    -0x2c(%ebp),%edx
    28dc:	89 d0                	mov    %edx,%eax
    28de:	01 c0                	add    %eax,%eax
    28e0:	01 d0                	add    %edx,%eax
    28e2:	c1 e0 02             	shl    $0x2,%eax
    28e5:	01 c8                	add    %ecx,%eax
    28e7:	8b 40 08             	mov    0x8(%eax),%eax
    28ea:	89 45 f0             	mov    %eax,-0x10(%ebp)
    28ed:	8b 45 f0             	mov    -0x10(%ebp),%eax
    28f0:	83 ec 0c             	sub    $0xc,%esp
    28f3:	50                   	push   %eax
    28f4:	e8 17 0a 00 00       	call   3310 <mm_malloc>
    28f9:	83 c4 10             	add    $0x10,%esp
    28fc:	89 45 f4             	mov    %eax,-0xc(%ebp)
    28ff:	83 7d f4 00          	cmpl   $0x0,-0xc(%ebp)
    2903:	75 12                	jne    2917 <eval_mm_speed+0xd2>
    2905:	83 ec 0c             	sub    $0xc,%esp
    2908:	8d 83 c8 d9 ff ff    	lea    -0x2638(%ebx),%eax
    290e:	50                   	push   %eax
    290f:	e8 d1 06 00 00       	call   2fe5 <app_error>
    2914:	83 c4 10             	add    $0x10,%esp
    2917:	8b 45 d8             	mov    -0x28(%ebp),%eax
    291a:	8b 40 14             	mov    0x14(%eax),%eax
    291d:	8b 55 dc             	mov    -0x24(%ebp),%edx
    2920:	c1 e2 02             	shl    $0x2,%edx
    2923:	01 c2                	add    %eax,%edx
    2925:	8b 45 f4             	mov    -0xc(%ebp),%eax
    2928:	89 02                	mov    %eax,(%edx)
    292a:	e9 d8 00 00 00       	jmp    2a07 <eval_mm_speed+0x1c2>
    292f:	8b 45 d8             	mov    -0x28(%ebp),%eax
    2932:	8b 48 10             	mov    0x10(%eax),%ecx
    2935:	8b 55 d4             	mov    -0x2c(%ebp),%edx
    2938:	89 d0                	mov    %edx,%eax
    293a:	01 c0                	add    %eax,%eax
    293c:	01 d0                	add    %edx,%eax
    293e:	c1 e0 02             	shl    $0x2,%eax
    2941:	01 c8                	add    %ecx,%eax
    2943:	8b 40 04             	mov    0x4(%eax),%eax
    2946:	89 45 dc             	mov    %eax,-0x24(%ebp)
    2949:	8b 45 d8             	mov    -0x28(%ebp),%eax
    294c:	8b 48 10             	mov    0x10(%eax),%ecx
    294f:	8b 55 d4             	mov    -0x2c(%ebp),%edx
    2952:	89 d0                	mov    %edx,%eax
    2954:	01 c0                	add    %eax,%eax
    2956:	01 d0                	add    %edx,%eax
    2958:	c1 e0 02             	shl    $0x2,%eax
    295b:	01 c8                	add    %ecx,%eax
    295d:	8b 40 08             	mov    0x8(%eax),%eax
    2960:	89 45 e0             	mov    %eax,-0x20(%ebp)
    2963:	8b 45 d8             	mov    -0x28(%ebp),%eax
    2966:	8b 40 14             	mov    0x14(%eax),%eax
    2969:	8b 55 dc             	mov    -0x24(%ebp),%edx
    296c:	c1 e2 02             	shl    $0x2,%edx
    296f:	01 d0                	add    %edx,%eax
    2971:	8b 00                	mov    (%eax),%eax
    2973:	89 45 e4             	mov    %eax,-0x1c(%ebp)
    2976:	8b 45 e0             	mov    -0x20(%ebp),%eax
    2979:	83 ec 08             	sub    $0x8,%esp
    297c:	50                   	push   %eax
    297d:	ff 75 e4             	pushl  -0x1c(%ebp)
    2980:	e8 e0 0d 00 00       	call   3765 <mm_realloc>
    2985:	83 c4 10             	add    $0x10,%esp
    2988:	89 45 e8             	mov    %eax,-0x18(%ebp)
    298b:	83 7d e8 00          	cmpl   $0x0,-0x18(%ebp)
    298f:	75 12                	jne    29a3 <eval_mm_speed+0x15e>
    2991:	83 ec 0c             	sub    $0xc,%esp
    2994:	8d 83 ec d9 ff ff    	lea    -0x2614(%ebx),%eax
    299a:	50                   	push   %eax
    299b:	e8 45 06 00 00       	call   2fe5 <app_error>
    29a0:	83 c4 10             	add    $0x10,%esp
    29a3:	8b 45 d8             	mov    -0x28(%ebp),%eax
    29a6:	8b 40 14             	mov    0x14(%eax),%eax
    29a9:	8b 55 dc             	mov    -0x24(%ebp),%edx
    29ac:	c1 e2 02             	shl    $0x2,%edx
    29af:	01 c2                	add    %eax,%edx
    29b1:	8b 45 e8             	mov    -0x18(%ebp),%eax
    29b4:	89 02                	mov    %eax,(%edx)
    29b6:	eb 4f                	jmp    2a07 <eval_mm_speed+0x1c2>
    29b8:	8b 45 d8             	mov    -0x28(%ebp),%eax
    29bb:	8b 48 10             	mov    0x10(%eax),%ecx
    29be:	8b 55 d4             	mov    -0x2c(%ebp),%edx
    29c1:	89 d0                	mov    %edx,%eax
    29c3:	01 c0                	add    %eax,%eax
    29c5:	01 d0                	add    %edx,%eax
    29c7:	c1 e0 02             	shl    $0x2,%eax
    29ca:	01 c8                	add    %ecx,%eax
    29cc:	8b 40 04             	mov    0x4(%eax),%eax
    29cf:	89 45 dc             	mov    %eax,-0x24(%ebp)
    29d2:	8b 45 d8             	mov    -0x28(%ebp),%eax
    29d5:	8b 40 14             	mov    0x14(%eax),%eax
    29d8:	8b 55 dc             	mov    -0x24(%ebp),%edx
    29db:	c1 e2 02             	shl    $0x2,%edx
    29de:	01 d0                	add    %edx,%eax
    29e0:	8b 00                	mov    (%eax),%eax
    29e2:	89 45 ec             	mov    %eax,-0x14(%ebp)
    29e5:	83 ec 0c             	sub    $0xc,%esp
    29e8:	ff 75 ec             	pushl  -0x14(%ebp)
    29eb:	e8 15 0b 00 00       	call   3505 <mm_free>
    29f0:	83 c4 10             	add    $0x10,%esp
    29f3:	eb 12                	jmp    2a07 <eval_mm_speed+0x1c2>
    29f5:	83 ec 0c             	sub    $0xc,%esp
    29f8:	8d 83 e8 d8 ff ff    	lea    -0x2718(%ebx),%eax
    29fe:	50                   	push   %eax
    29ff:	e8 e1 05 00 00       	call   2fe5 <app_error>
    2a04:	83 c4 10             	add    $0x10,%esp
    2a07:	83 45 d4 01          	addl   $0x1,-0x2c(%ebp)
    2a0b:	8b 45 d8             	mov    -0x28(%ebp),%eax
    2a0e:	8b 40 08             	mov    0x8(%eax),%eax
    2a11:	39 45 d4             	cmp    %eax,-0x2c(%ebp)
    2a14:	0f 8c 71 fe ff ff    	jl     288b <eval_mm_speed+0x46>
    2a1a:	90                   	nop
    2a1b:	8b 5d fc             	mov    -0x4(%ebp),%ebx
    2a1e:	c9                   	leave  
    2a1f:	c3                   	ret    

00002a20 <eval_libc_valid>:
    2a20:	55                   	push   %ebp
    2a21:	89 e5                	mov    %esp,%ebp
    2a23:	56                   	push   %esi
    2a24:	53                   	push   %ebx
    2a25:	83 ec 20             	sub    $0x20,%esp
    2a28:	e8 73 e5 ff ff       	call   fa0 <__x86.get_pc_thunk.bx>
    2a2d:	81 c3 2b 45 00 00    	add    $0x452b,%ebx
    2a33:	c7 45 e4 00 00 00 00 	movl   $0x0,-0x1c(%ebp)
    2a3a:	e9 ad 01 00 00       	jmp    2bec <eval_libc_valid+0x1cc>
    2a3f:	8b 45 08             	mov    0x8(%ebp),%eax
    2a42:	8b 48 10             	mov    0x10(%eax),%ecx
    2a45:	8b 55 e4             	mov    -0x1c(%ebp),%edx
    2a48:	89 d0                	mov    %edx,%eax
    2a4a:	01 c0                	add    %eax,%eax
    2a4c:	01 d0                	add    %edx,%eax
    2a4e:	c1 e0 02             	shl    $0x2,%eax
    2a51:	01 c8                	add    %ecx,%eax
    2a53:	8b 00                	mov    (%eax),%eax
    2a55:	83 f8 01             	cmp    $0x1,%eax
    2a58:	0f 84 46 01 00 00    	je     2ba4 <eval_libc_valid+0x184>
    2a5e:	83 f8 01             	cmp    $0x1,%eax
    2a61:	72 0e                	jb     2a71 <eval_libc_valid+0x51>
    2a63:	83 f8 02             	cmp    $0x2,%eax
    2a66:	0f 84 88 00 00 00    	je     2af4 <eval_libc_valid+0xd4>
    2a6c:	e9 65 01 00 00       	jmp    2bd6 <eval_libc_valid+0x1b6>
    2a71:	8b 45 08             	mov    0x8(%ebp),%eax
    2a74:	8b 48 10             	mov    0x10(%eax),%ecx
    2a77:	8b 55 e4             	mov    -0x1c(%ebp),%edx
    2a7a:	89 d0                	mov    %edx,%eax
    2a7c:	01 c0                	add    %eax,%eax
    2a7e:	01 d0                	add    %edx,%eax
    2a80:	c1 e0 02             	shl    $0x2,%eax
    2a83:	01 c8                	add    %ecx,%eax
    2a85:	8b 40 08             	mov    0x8(%eax),%eax
    2a88:	83 ec 0c             	sub    $0xc,%esp
    2a8b:	50                   	push   %eax
    2a8c:	e8 af e3 ff ff       	call   e40 <malloc@plt>
    2a91:	83 c4 10             	add    $0x10,%esp
    2a94:	89 45 f4             	mov    %eax,-0xc(%ebp)
    2a97:	83 7d f4 00          	cmpl   $0x0,-0xc(%ebp)
    2a9b:	75 2a                	jne    2ac7 <eval_libc_valid+0xa7>
    2a9d:	83 ec 04             	sub    $0x4,%esp
    2aa0:	8d 83 0e da ff ff    	lea    -0x25f2(%ebx),%eax
    2aa6:	50                   	push   %eax
    2aa7:	ff 75 e4             	pushl  -0x1c(%ebp)
    2aaa:	ff 75 0c             	pushl  0xc(%ebp)
    2aad:	e8 a2 05 00 00       	call   3054 <malloc_error>
    2ab2:	83 c4 10             	add    $0x10,%esp
    2ab5:	83 ec 0c             	sub    $0xc,%esp
    2ab8:	8d 83 21 da ff ff    	lea    -0x25df(%ebx),%eax
    2abe:	50                   	push   %eax
    2abf:	e8 4b 05 00 00       	call   300f <unix_error>
    2ac4:	83 c4 10             	add    $0x10,%esp
    2ac7:	8b 45 08             	mov    0x8(%ebp),%eax
    2aca:	8b 48 14             	mov    0x14(%eax),%ecx
    2acd:	8b 45 08             	mov    0x8(%ebp),%eax
    2ad0:	8b 70 10             	mov    0x10(%eax),%esi
    2ad3:	8b 55 e4             	mov    -0x1c(%ebp),%edx
    2ad6:	89 d0                	mov    %edx,%eax
    2ad8:	01 c0                	add    %eax,%eax
    2ada:	01 d0                	add    %edx,%eax
    2adc:	c1 e0 02             	shl    $0x2,%eax
    2adf:	01 f0                	add    %esi,%eax
    2ae1:	8b 40 04             	mov    0x4(%eax),%eax
    2ae4:	c1 e0 02             	shl    $0x2,%eax
    2ae7:	8d 14 01             	lea    (%ecx,%eax,1),%edx
    2aea:	8b 45 f4             	mov    -0xc(%ebp),%eax
    2aed:	89 02                	mov    %eax,(%edx)
    2aef:	e9 f4 00 00 00       	jmp    2be8 <eval_libc_valid+0x1c8>
    2af4:	8b 45 08             	mov    0x8(%ebp),%eax
    2af7:	8b 48 10             	mov    0x10(%eax),%ecx
    2afa:	8b 55 e4             	mov    -0x1c(%ebp),%edx
    2afd:	89 d0                	mov    %edx,%eax
    2aff:	01 c0                	add    %eax,%eax
    2b01:	01 d0                	add    %edx,%eax
    2b03:	c1 e0 02             	shl    $0x2,%eax
    2b06:	01 c8                	add    %ecx,%eax
    2b08:	8b 40 08             	mov    0x8(%eax),%eax
    2b0b:	89 45 e8             	mov    %eax,-0x18(%ebp)
    2b0e:	8b 45 08             	mov    0x8(%ebp),%eax
    2b11:	8b 48 14             	mov    0x14(%eax),%ecx
    2b14:	8b 45 08             	mov    0x8(%ebp),%eax
    2b17:	8b 70 10             	mov    0x10(%eax),%esi
    2b1a:	8b 55 e4             	mov    -0x1c(%ebp),%edx
    2b1d:	89 d0                	mov    %edx,%eax
    2b1f:	01 c0                	add    %eax,%eax
    2b21:	01 d0                	add    %edx,%eax
    2b23:	c1 e0 02             	shl    $0x2,%eax
    2b26:	01 f0                	add    %esi,%eax
    2b28:	8b 40 04             	mov    0x4(%eax),%eax
    2b2b:	c1 e0 02             	shl    $0x2,%eax
    2b2e:	01 c8                	add    %ecx,%eax
    2b30:	8b 00                	mov    (%eax),%eax
    2b32:	89 45 ec             	mov    %eax,-0x14(%ebp)
    2b35:	8b 45 e8             	mov    -0x18(%ebp),%eax
    2b38:	83 ec 08             	sub    $0x8,%esp
    2b3b:	50                   	push   %eax
    2b3c:	ff 75 ec             	pushl  -0x14(%ebp)
    2b3f:	e8 ec e2 ff ff       	call   e30 <realloc@plt>
    2b44:	83 c4 10             	add    $0x10,%esp
    2b47:	89 45 f0             	mov    %eax,-0x10(%ebp)
    2b4a:	83 7d f0 00          	cmpl   $0x0,-0x10(%ebp)
    2b4e:	75 2a                	jne    2b7a <eval_libc_valid+0x15a>
    2b50:	83 ec 04             	sub    $0x4,%esp
    2b53:	8d 83 30 da ff ff    	lea    -0x25d0(%ebx),%eax
    2b59:	50                   	push   %eax
    2b5a:	ff 75 e4             	pushl  -0x1c(%ebp)
    2b5d:	ff 75 0c             	pushl  0xc(%ebp)
    2b60:	e8 ef 04 00 00       	call   3054 <malloc_error>
    2b65:	83 c4 10             	add    $0x10,%esp
    2b68:	83 ec 0c             	sub    $0xc,%esp
    2b6b:	8d 83 21 da ff ff    	lea    -0x25df(%ebx),%eax
    2b71:	50                   	push   %eax
    2b72:	e8 98 04 00 00       	call   300f <unix_error>
    2b77:	83 c4 10             	add    $0x10,%esp
    2b7a:	8b 45 08             	mov    0x8(%ebp),%eax
    2b7d:	8b 48 14             	mov    0x14(%eax),%ecx
    2b80:	8b 45 08             	mov    0x8(%ebp),%eax
    2b83:	8b 70 10             	mov    0x10(%eax),%esi
    2b86:	8b 55 e4             	mov    -0x1c(%ebp),%edx
    2b89:	89 d0                	mov    %edx,%eax
    2b8b:	01 c0                	add    %eax,%eax
    2b8d:	01 d0                	add    %edx,%eax
    2b8f:	c1 e0 02             	shl    $0x2,%eax
    2b92:	01 f0                	add    %esi,%eax
    2b94:	8b 40 04             	mov    0x4(%eax),%eax
    2b97:	c1 e0 02             	shl    $0x2,%eax
    2b9a:	8d 14 01             	lea    (%ecx,%eax,1),%edx
    2b9d:	8b 45 f0             	mov    -0x10(%ebp),%eax
    2ba0:	89 02                	mov    %eax,(%edx)
    2ba2:	eb 44                	jmp    2be8 <eval_libc_valid+0x1c8>
    2ba4:	8b 45 08             	mov    0x8(%ebp),%eax
    2ba7:	8b 48 14             	mov    0x14(%eax),%ecx
    2baa:	8b 45 08             	mov    0x8(%ebp),%eax
    2bad:	8b 70 10             	mov    0x10(%eax),%esi
    2bb0:	8b 55 e4             	mov    -0x1c(%ebp),%edx
    2bb3:	89 d0                	mov    %edx,%eax
    2bb5:	01 c0                	add    %eax,%eax
    2bb7:	01 d0                	add    %edx,%eax
    2bb9:	c1 e0 02             	shl    $0x2,%eax
    2bbc:	01 f0                	add    %esi,%eax
    2bbe:	8b 40 04             	mov    0x4(%eax),%eax
    2bc1:	c1 e0 02             	shl    $0x2,%eax
    2bc4:	01 c8                	add    %ecx,%eax
    2bc6:	8b 00                	mov    (%eax),%eax
    2bc8:	83 ec 0c             	sub    $0xc,%esp
    2bcb:	50                   	push   %eax
    2bcc:	e8 bf e1 ff ff       	call   d90 <free@plt>
    2bd1:	83 c4 10             	add    $0x10,%esp
    2bd4:	eb 12                	jmp    2be8 <eval_libc_valid+0x1c8>
    2bd6:	83 ec 0c             	sub    $0xc,%esp
    2bd9:	8d 83 44 da ff ff    	lea    -0x25bc(%ebx),%eax
    2bdf:	50                   	push   %eax
    2be0:	e8 00 04 00 00       	call   2fe5 <app_error>
    2be5:	83 c4 10             	add    $0x10,%esp
    2be8:	83 45 e4 01          	addl   $0x1,-0x1c(%ebp)
    2bec:	8b 45 08             	mov    0x8(%ebp),%eax
    2bef:	8b 40 08             	mov    0x8(%eax),%eax
    2bf2:	39 45 e4             	cmp    %eax,-0x1c(%ebp)
    2bf5:	0f 8c 44 fe ff ff    	jl     2a3f <eval_libc_valid+0x1f>
    2bfb:	b8 01 00 00 00       	mov    $0x1,%eax
    2c00:	8d 65 f8             	lea    -0x8(%ebp),%esp
    2c03:	5b                   	pop    %ebx
    2c04:	5e                   	pop    %esi
    2c05:	5d                   	pop    %ebp
    2c06:	c3                   	ret    

00002c07 <eval_libc_speed>:
    2c07:	55                   	push   %ebp
    2c08:	89 e5                	mov    %esp,%ebp
    2c0a:	53                   	push   %ebx
    2c0b:	83 ec 34             	sub    $0x34,%esp
    2c0e:	e8 8d e3 ff ff       	call   fa0 <__x86.get_pc_thunk.bx>
    2c13:	81 c3 45 43 00 00    	add    $0x4345,%ebx
    2c19:	8b 45 08             	mov    0x8(%ebp),%eax
    2c1c:	8b 00                	mov    (%eax),%eax
    2c1e:	89 45 d8             	mov    %eax,-0x28(%ebp)
    2c21:	c7 45 d4 00 00 00 00 	movl   $0x0,-0x2c(%ebp)
    2c28:	e9 6d 01 00 00       	jmp    2d9a <eval_libc_speed+0x193>
    2c2d:	8b 45 d8             	mov    -0x28(%ebp),%eax
    2c30:	8b 48 10             	mov    0x10(%eax),%ecx
    2c33:	8b 55 d4             	mov    -0x2c(%ebp),%edx
    2c36:	89 d0                	mov    %edx,%eax
    2c38:	01 c0                	add    %eax,%eax
    2c3a:	01 d0                	add    %edx,%eax
    2c3c:	c1 e0 02             	shl    $0x2,%eax
    2c3f:	01 c8                	add    %ecx,%eax
    2c41:	8b 00                	mov    (%eax),%eax
    2c43:	83 f8 01             	cmp    $0x1,%eax
    2c46:	0f 84 0e 01 00 00    	je     2d5a <eval_libc_speed+0x153>
    2c4c:	83 f8 01             	cmp    $0x1,%eax
    2c4f:	72 0a                	jb     2c5b <eval_libc_speed+0x54>
    2c51:	83 f8 02             	cmp    $0x2,%eax
    2c54:	74 7b                	je     2cd1 <eval_libc_speed+0xca>
    2c56:	e9 3b 01 00 00       	jmp    2d96 <eval_libc_speed+0x18f>
    2c5b:	8b 45 d8             	mov    -0x28(%ebp),%eax
    2c5e:	8b 48 10             	mov    0x10(%eax),%ecx
    2c61:	8b 55 d4             	mov    -0x2c(%ebp),%edx
    2c64:	89 d0                	mov    %edx,%eax
    2c66:	01 c0                	add    %eax,%eax
    2c68:	01 d0                	add    %edx,%eax
    2c6a:	c1 e0 02             	shl    $0x2,%eax
    2c6d:	01 c8                	add    %ecx,%eax
    2c6f:	8b 40 04             	mov    0x4(%eax),%eax
    2c72:	89 45 dc             	mov    %eax,-0x24(%ebp)
    2c75:	8b 45 d8             	mov    -0x28(%ebp),%eax
    2c78:	8b 48 10             	mov    0x10(%eax),%ecx
    2c7b:	8b 55 d4             	mov    -0x2c(%ebp),%edx
    2c7e:	89 d0                	mov    %edx,%eax
    2c80:	01 c0                	add    %eax,%eax
    2c82:	01 d0                	add    %edx,%eax
    2c84:	c1 e0 02             	shl    $0x2,%eax
    2c87:	01 c8                	add    %ecx,%eax
    2c89:	8b 40 08             	mov    0x8(%eax),%eax
    2c8c:	89 45 f0             	mov    %eax,-0x10(%ebp)
    2c8f:	8b 45 f0             	mov    -0x10(%ebp),%eax
    2c92:	83 ec 0c             	sub    $0xc,%esp
    2c95:	50                   	push   %eax
    2c96:	e8 a5 e1 ff ff       	call   e40 <malloc@plt>
    2c9b:	83 c4 10             	add    $0x10,%esp
    2c9e:	89 45 f4             	mov    %eax,-0xc(%ebp)
    2ca1:	83 7d f4 00          	cmpl   $0x0,-0xc(%ebp)
    2ca5:	75 12                	jne    2cb9 <eval_libc_speed+0xb2>
    2ca7:	83 ec 0c             	sub    $0xc,%esp
    2caa:	8d 83 70 da ff ff    	lea    -0x2590(%ebx),%eax
    2cb0:	50                   	push   %eax
    2cb1:	e8 59 03 00 00       	call   300f <unix_error>
    2cb6:	83 c4 10             	add    $0x10,%esp
    2cb9:	8b 45 d8             	mov    -0x28(%ebp),%eax
    2cbc:	8b 40 14             	mov    0x14(%eax),%eax
    2cbf:	8b 55 dc             	mov    -0x24(%ebp),%edx
    2cc2:	c1 e2 02             	shl    $0x2,%edx
    2cc5:	01 c2                	add    %eax,%edx
    2cc7:	8b 45 f4             	mov    -0xc(%ebp),%eax
    2cca:	89 02                	mov    %eax,(%edx)
    2ccc:	e9 c5 00 00 00       	jmp    2d96 <eval_libc_speed+0x18f>
    2cd1:	8b 45 d8             	mov    -0x28(%ebp),%eax
    2cd4:	8b 48 10             	mov    0x10(%eax),%ecx
    2cd7:	8b 55 d4             	mov    -0x2c(%ebp),%edx
    2cda:	89 d0                	mov    %edx,%eax
    2cdc:	01 c0                	add    %eax,%eax
    2cde:	01 d0                	add    %edx,%eax
    2ce0:	c1 e0 02             	shl    $0x2,%eax
    2ce3:	01 c8                	add    %ecx,%eax
    2ce5:	8b 40 04             	mov    0x4(%eax),%eax
    2ce8:	89 45 dc             	mov    %eax,-0x24(%ebp)
    2ceb:	8b 45 d8             	mov    -0x28(%ebp),%eax
    2cee:	8b 48 10             	mov    0x10(%eax),%ecx
    2cf1:	8b 55 d4             	mov    -0x2c(%ebp),%edx
    2cf4:	89 d0                	mov    %edx,%eax
    2cf6:	01 c0                	add    %eax,%eax
    2cf8:	01 d0                	add    %edx,%eax
    2cfa:	c1 e0 02             	shl    $0x2,%eax
    2cfd:	01 c8                	add    %ecx,%eax
    2cff:	8b 40 08             	mov    0x8(%eax),%eax
    2d02:	89 45 e0             	mov    %eax,-0x20(%ebp)
    2d05:	8b 45 d8             	mov    -0x28(%ebp),%eax
    2d08:	8b 40 14             	mov    0x14(%eax),%eax
    2d0b:	8b 55 dc             	mov    -0x24(%ebp),%edx
    2d0e:	c1 e2 02             	shl    $0x2,%edx
    2d11:	01 d0                	add    %edx,%eax
    2d13:	8b 00                	mov    (%eax),%eax
    2d15:	89 45 e4             	mov    %eax,-0x1c(%ebp)
    2d18:	8b 45 e0             	mov    -0x20(%ebp),%eax
    2d1b:	83 ec 08             	sub    $0x8,%esp
    2d1e:	50                   	push   %eax
    2d1f:	ff 75 e4             	pushl  -0x1c(%ebp)
    2d22:	e8 09 e1 ff ff       	call   e30 <realloc@plt>
    2d27:	83 c4 10             	add    $0x10,%esp
    2d2a:	89 45 e8             	mov    %eax,-0x18(%ebp)
    2d2d:	83 7d e8 00          	cmpl   $0x0,-0x18(%ebp)
    2d31:	75 12                	jne    2d45 <eval_libc_speed+0x13e>
    2d33:	83 ec 0c             	sub    $0xc,%esp
    2d36:	8d 83 94 da ff ff    	lea    -0x256c(%ebx),%eax
    2d3c:	50                   	push   %eax
    2d3d:	e8 cd 02 00 00       	call   300f <unix_error>
    2d42:	83 c4 10             	add    $0x10,%esp
    2d45:	8b 45 d8             	mov    -0x28(%ebp),%eax
    2d48:	8b 40 14             	mov    0x14(%eax),%eax
    2d4b:	8b 55 dc             	mov    -0x24(%ebp),%edx
    2d4e:	c1 e2 02             	shl    $0x2,%edx
    2d51:	01 c2                	add    %eax,%edx
    2d53:	8b 45 e8             	mov    -0x18(%ebp),%eax
    2d56:	89 02                	mov    %eax,(%edx)
    2d58:	eb 3c                	jmp    2d96 <eval_libc_speed+0x18f>
    2d5a:	8b 45 d8             	mov    -0x28(%ebp),%eax
    2d5d:	8b 48 10             	mov    0x10(%eax),%ecx
    2d60:	8b 55 d4             	mov    -0x2c(%ebp),%edx
    2d63:	89 d0                	mov    %edx,%eax
    2d65:	01 c0                	add    %eax,%eax
    2d67:	01 d0                	add    %edx,%eax
    2d69:	c1 e0 02             	shl    $0x2,%eax
    2d6c:	01 c8                	add    %ecx,%eax
    2d6e:	8b 40 04             	mov    0x4(%eax),%eax
    2d71:	89 45 dc             	mov    %eax,-0x24(%ebp)
    2d74:	8b 45 d8             	mov    -0x28(%ebp),%eax
    2d77:	8b 40 14             	mov    0x14(%eax),%eax
    2d7a:	8b 55 dc             	mov    -0x24(%ebp),%edx
    2d7d:	c1 e2 02             	shl    $0x2,%edx
    2d80:	01 d0                	add    %edx,%eax
    2d82:	8b 00                	mov    (%eax),%eax
    2d84:	89 45 ec             	mov    %eax,-0x14(%ebp)
    2d87:	83 ec 0c             	sub    $0xc,%esp
    2d8a:	ff 75 ec             	pushl  -0x14(%ebp)
    2d8d:	e8 fe df ff ff       	call   d90 <free@plt>
    2d92:	83 c4 10             	add    $0x10,%esp
    2d95:	90                   	nop
    2d96:	83 45 d4 01          	addl   $0x1,-0x2c(%ebp)
    2d9a:	8b 45 d8             	mov    -0x28(%ebp),%eax
    2d9d:	8b 40 08             	mov    0x8(%eax),%eax
    2da0:	39 45 d4             	cmp    %eax,-0x2c(%ebp)
    2da3:	0f 8c 84 fe ff ff    	jl     2c2d <eval_libc_speed+0x26>
    2da9:	90                   	nop
    2daa:	8b 5d fc             	mov    -0x4(%ebp),%ebx
    2dad:	c9                   	leave  
    2dae:	c3                   	ret    

00002daf <printresults>:
    2daf:	55                   	push   %ebp
    2db0:	89 e5                	mov    %esp,%ebp
    2db2:	53                   	push   %ebx
    2db3:	83 ec 24             	sub    $0x24,%esp
    2db6:	e8 e5 e1 ff ff       	call   fa0 <__x86.get_pc_thunk.bx>
    2dbb:	81 c3 9d 41 00 00    	add    $0x419d,%ebx
    2dc1:	d9 ee                	fldz   
    2dc3:	dd 5d e0             	fstpl  -0x20(%ebp)
    2dc6:	d9 ee                	fldz   
    2dc8:	dd 5d e8             	fstpl  -0x18(%ebp)
    2dcb:	d9 ee                	fldz   
    2dcd:	dd 5d f0             	fstpl  -0x10(%ebp)
    2dd0:	83 ec 04             	sub    $0x4,%esp
    2dd3:	8d 83 b7 da ff ff    	lea    -0x2549(%ebx),%eax
    2dd9:	50                   	push   %eax
    2dda:	8d 83 bc da ff ff    	lea    -0x2544(%ebx),%eax
    2de0:	50                   	push   %eax
    2de1:	8d 83 c1 da ff ff    	lea    -0x253f(%ebx),%eax
    2de7:	50                   	push   %eax
    2de8:	8d 83 c5 da ff ff    	lea    -0x253b(%ebx),%eax
    2dee:	50                   	push   %eax
    2def:	8d 83 ca da ff ff    	lea    -0x2536(%ebx),%eax
    2df5:	50                   	push   %eax
    2df6:	8d 83 d1 da ff ff    	lea    -0x252f(%ebx),%eax
    2dfc:	50                   	push   %eax
    2dfd:	8d 83 d7 da ff ff    	lea    -0x2529(%ebx),%eax
    2e03:	50                   	push   %eax
    2e04:	e8 57 df ff ff       	call   d60 <printf@plt>
    2e09:	83 c4 20             	add    $0x20,%esp
    2e0c:	c7 45 dc 00 00 00 00 	movl   $0x0,-0x24(%ebp)
    2e13:	e9 27 01 00 00       	jmp    2f3f <printresults+0x190>
    2e18:	8b 45 dc             	mov    -0x24(%ebp),%eax
    2e1b:	6b d0 1c             	imul   $0x1c,%eax,%edx
    2e1e:	8b 45 0c             	mov    0xc(%ebp),%eax
    2e21:	01 d0                	add    %edx,%eax
    2e23:	8b 40 08             	mov    0x8(%eax),%eax
    2e26:	85 c0                	test   %eax,%eax
    2e28:	0f 84 d5 00 00 00    	je     2f03 <printresults+0x154>
    2e2e:	8b 45 dc             	mov    -0x24(%ebp),%eax
    2e31:	6b d0 1c             	imul   $0x1c,%eax,%edx
    2e34:	8b 45 0c             	mov    0xc(%ebp),%eax
    2e37:	01 d0                	add    %edx,%eax
    2e39:	dd 00                	fldl   (%eax)
    2e3b:	dd 83 78 dd ff ff    	fldl   -0x2288(%ebx)
    2e41:	de f9                	fdivrp %st,%st(1)
    2e43:	8b 45 dc             	mov    -0x24(%ebp),%eax
    2e46:	6b d0 1c             	imul   $0x1c,%eax,%edx
    2e49:	8b 45 0c             	mov    0xc(%ebp),%eax
    2e4c:	01 d0                	add    %edx,%eax
    2e4e:	dd 40 0c             	fldl   0xc(%eax)
    2e51:	de f9                	fdivrp %st,%st(1)
    2e53:	8b 45 dc             	mov    -0x24(%ebp),%eax
    2e56:	6b d0 1c             	imul   $0x1c,%eax,%edx
    2e59:	8b 45 0c             	mov    0xc(%ebp),%eax
    2e5c:	01 d0                	add    %edx,%eax
    2e5e:	dd 40 0c             	fldl   0xc(%eax)
    2e61:	8b 45 dc             	mov    -0x24(%ebp),%eax
    2e64:	6b d0 1c             	imul   $0x1c,%eax,%edx
    2e67:	8b 45 0c             	mov    0xc(%ebp),%eax
    2e6a:	01 d0                	add    %edx,%eax
    2e6c:	dd 00                	fldl   (%eax)
    2e6e:	8b 45 dc             	mov    -0x24(%ebp),%eax
    2e71:	6b d0 1c             	imul   $0x1c,%eax,%edx
    2e74:	8b 45 0c             	mov    0xc(%ebp),%eax
    2e77:	01 d0                	add    %edx,%eax
    2e79:	dd 40 14             	fldl   0x14(%eax)
    2e7c:	dd 83 70 dd ff ff    	fldl   -0x2290(%ebx)
    2e82:	de c9                	fmulp  %st,%st(1)
    2e84:	d9 cb                	fxch   %st(3)
    2e86:	83 ec 04             	sub    $0x4,%esp
    2e89:	8d 64 24 f8          	lea    -0x8(%esp),%esp
    2e8d:	dd 1c 24             	fstpl  (%esp)
    2e90:	d9 c9                	fxch   %st(1)
    2e92:	8d 64 24 f8          	lea    -0x8(%esp),%esp
    2e96:	dd 1c 24             	fstpl  (%esp)
    2e99:	8d 64 24 f8          	lea    -0x8(%esp),%esp
    2e9d:	dd 1c 24             	fstpl  (%esp)
    2ea0:	8d 64 24 f8          	lea    -0x8(%esp),%esp
    2ea4:	dd 1c 24             	fstpl  (%esp)
    2ea7:	8d 83 ed da ff ff    	lea    -0x2513(%ebx),%eax
    2ead:	50                   	push   %eax
    2eae:	ff 75 dc             	pushl  -0x24(%ebp)
    2eb1:	8d 83 f4 da ff ff    	lea    -0x250c(%ebx),%eax
    2eb7:	50                   	push   %eax
    2eb8:	e8 a3 de ff ff       	call   d60 <printf@plt>
    2ebd:	83 c4 30             	add    $0x30,%esp
    2ec0:	8b 45 dc             	mov    -0x24(%ebp),%eax
    2ec3:	6b d0 1c             	imul   $0x1c,%eax,%edx
    2ec6:	8b 45 0c             	mov    0xc(%ebp),%eax
    2ec9:	01 d0                	add    %edx,%eax
    2ecb:	dd 40 0c             	fldl   0xc(%eax)
    2ece:	dd 45 e0             	fldl   -0x20(%ebp)
    2ed1:	de c1                	faddp  %st,%st(1)
    2ed3:	dd 5d e0             	fstpl  -0x20(%ebp)
    2ed6:	8b 45 dc             	mov    -0x24(%ebp),%eax
    2ed9:	6b d0 1c             	imul   $0x1c,%eax,%edx
    2edc:	8b 45 0c             	mov    0xc(%ebp),%eax
    2edf:	01 d0                	add    %edx,%eax
    2ee1:	dd 00                	fldl   (%eax)
    2ee3:	dd 45 e8             	fldl   -0x18(%ebp)
    2ee6:	de c1                	faddp  %st,%st(1)
    2ee8:	dd 5d e8             	fstpl  -0x18(%ebp)
    2eeb:	8b 45 dc             	mov    -0x24(%ebp),%eax
    2eee:	6b d0 1c             	imul   $0x1c,%eax,%edx
    2ef1:	8b 45 0c             	mov    0xc(%ebp),%eax
    2ef4:	01 d0                	add    %edx,%eax
    2ef6:	dd 40 14             	fldl   0x14(%eax)
    2ef9:	dd 45 f0             	fldl   -0x10(%ebp)
    2efc:	de c1                	faddp  %st,%st(1)
    2efe:	dd 5d f0             	fstpl  -0x10(%ebp)
    2f01:	eb 38                	jmp    2f3b <printresults+0x18c>
    2f03:	83 ec 04             	sub    $0x4,%esp
    2f06:	8d 83 14 db ff ff    	lea    -0x24ec(%ebx),%eax
    2f0c:	50                   	push   %eax
    2f0d:	8d 83 14 db ff ff    	lea    -0x24ec(%ebx),%eax
    2f13:	50                   	push   %eax
    2f14:	8d 83 14 db ff ff    	lea    -0x24ec(%ebx),%eax
    2f1a:	50                   	push   %eax
    2f1b:	8d 83 14 db ff ff    	lea    -0x24ec(%ebx),%eax
    2f21:	50                   	push   %eax
    2f22:	8d 83 16 db ff ff    	lea    -0x24ea(%ebx),%eax
    2f28:	50                   	push   %eax
    2f29:	ff 75 dc             	pushl  -0x24(%ebp)
    2f2c:	8d 83 19 db ff ff    	lea    -0x24e7(%ebx),%eax
    2f32:	50                   	push   %eax
    2f33:	e8 28 de ff ff       	call   d60 <printf@plt>
    2f38:	83 c4 20             	add    $0x20,%esp
    2f3b:	83 45 dc 01          	addl   $0x1,-0x24(%ebp)
    2f3f:	8b 45 dc             	mov    -0x24(%ebp),%eax
    2f42:	3b 45 08             	cmp    0x8(%ebp),%eax
    2f45:	0f 8c cd fe ff ff    	jl     2e18 <printresults+0x69>
    2f4b:	8b 83 34 05 00 00    	mov    0x534(%ebx),%eax
    2f51:	85 c0                	test   %eax,%eax
    2f53:	75 55                	jne    2faa <printresults+0x1fb>
    2f55:	dd 45 e8             	fldl   -0x18(%ebp)
    2f58:	dd 83 78 dd ff ff    	fldl   -0x2288(%ebx)
    2f5e:	de f9                	fdivrp %st,%st(1)
    2f60:	dc 75 e0             	fdivl  -0x20(%ebp)
    2f63:	db 45 08             	fildl  0x8(%ebp)
    2f66:	dd 45 f0             	fldl   -0x10(%ebp)
    2f69:	de f1                	fdivp  %st,%st(1)
    2f6b:	dd 83 70 dd ff ff    	fldl   -0x2290(%ebx)
    2f71:	de c9                	fmulp  %st,%st(1)
    2f73:	d9 c9                	fxch   %st(1)
    2f75:	83 ec 08             	sub    $0x8,%esp
    2f78:	8d 64 24 f8          	lea    -0x8(%esp),%esp
    2f7c:	dd 1c 24             	fstpl  (%esp)
    2f7f:	ff 75 e4             	pushl  -0x1c(%ebp)
    2f82:	ff 75 e0             	pushl  -0x20(%ebp)
    2f85:	ff 75 ec             	pushl  -0x14(%ebp)
    2f88:	ff 75 e8             	pushl  -0x18(%ebp)
    2f8b:	8d 64 24 f8          	lea    -0x8(%esp),%esp
    2f8f:	dd 1c 24             	fstpl  (%esp)
    2f92:	8d 83 2f db ff ff    	lea    -0x24d1(%ebx),%eax
    2f98:	50                   	push   %eax
    2f99:	8d 83 3c db ff ff    	lea    -0x24c4(%ebx),%eax
    2f9f:	50                   	push   %eax
    2fa0:	e8 bb dd ff ff       	call   d60 <printf@plt>
    2fa5:	83 c4 30             	add    $0x30,%esp
    2fa8:	eb 35                	jmp    2fdf <printresults+0x230>
    2faa:	83 ec 08             	sub    $0x8,%esp
    2fad:	8d 83 14 db ff ff    	lea    -0x24ec(%ebx),%eax
    2fb3:	50                   	push   %eax
    2fb4:	8d 83 14 db ff ff    	lea    -0x24ec(%ebx),%eax
    2fba:	50                   	push   %eax
    2fbb:	8d 83 14 db ff ff    	lea    -0x24ec(%ebx),%eax
    2fc1:	50                   	push   %eax
    2fc2:	8d 83 14 db ff ff    	lea    -0x24ec(%ebx),%eax
    2fc8:	50                   	push   %eax
    2fc9:	8d 83 2f db ff ff    	lea    -0x24d1(%ebx),%eax
    2fcf:	50                   	push   %eax
    2fd0:	8d 83 59 db ff ff    	lea    -0x24a7(%ebx),%eax
    2fd6:	50                   	push   %eax
    2fd7:	e8 84 dd ff ff       	call   d60 <printf@plt>
    2fdc:	83 c4 20             	add    $0x20,%esp
    2fdf:	90                   	nop
    2fe0:	8b 5d fc             	mov    -0x4(%ebp),%ebx
    2fe3:	c9                   	leave  
    2fe4:	c3                   	ret    

00002fe5 <app_error>:
    2fe5:	55                   	push   %ebp
    2fe6:	89 e5                	mov    %esp,%ebp
    2fe8:	53                   	push   %ebx
    2fe9:	83 ec 04             	sub    $0x4,%esp
    2fec:	e8 af df ff ff       	call   fa0 <__x86.get_pc_thunk.bx>
    2ff1:	81 c3 67 3f 00 00    	add    $0x3f67,%ebx
    2ff7:	83 ec 0c             	sub    $0xc,%esp
    2ffa:	ff 75 08             	pushl  0x8(%ebp)
    2ffd:	e8 4e de ff ff       	call   e50 <puts@plt>
    3002:	83 c4 10             	add    $0x10,%esp
    3005:	83 ec 0c             	sub    $0xc,%esp
    3008:	6a 01                	push   $0x1
    300a:	e8 61 de ff ff       	call   e70 <exit@plt>

0000300f <unix_error>:
    300f:	55                   	push   %ebp
    3010:	89 e5                	mov    %esp,%ebp
    3012:	53                   	push   %ebx
    3013:	83 ec 04             	sub    $0x4,%esp
    3016:	e8 85 df ff ff       	call   fa0 <__x86.get_pc_thunk.bx>
    301b:	81 c3 3d 3f 00 00    	add    $0x3f3d,%ebx
    3021:	e8 ca de ff ff       	call   ef0 <__errno_location@plt>
    3026:	8b 00                	mov    (%eax),%eax
    3028:	83 ec 0c             	sub    $0xc,%esp
    302b:	50                   	push   %eax
    302c:	e8 2f de ff ff       	call   e60 <strerror@plt>
    3031:	83 c4 10             	add    $0x10,%esp
    3034:	83 ec 04             	sub    $0x4,%esp
    3037:	50                   	push   %eax
    3038:	ff 75 08             	pushl  0x8(%ebp)
    303b:	8d 83 6c db ff ff    	lea    -0x2494(%ebx),%eax
    3041:	50                   	push   %eax
    3042:	e8 19 dd ff ff       	call   d60 <printf@plt>
    3047:	83 c4 10             	add    $0x10,%esp
    304a:	83 ec 0c             	sub    $0xc,%esp
    304d:	6a 01                	push   $0x1
    304f:	e8 1c de ff ff       	call   e70 <exit@plt>

00003054 <malloc_error>:
    3054:	55                   	push   %ebp
    3055:	89 e5                	mov    %esp,%ebp
    3057:	53                   	push   %ebx
    3058:	83 ec 04             	sub    $0x4,%esp
    305b:	e8 68 01 00 00       	call   31c8 <__x86.get_pc_thunk.ax>
    3060:	05 f8 3e 00 00       	add    $0x3ef8,%eax
    3065:	8b 90 34 05 00 00    	mov    0x534(%eax),%edx
    306b:	83 c2 01             	add    $0x1,%edx
    306e:	89 90 34 05 00 00    	mov    %edx,0x534(%eax)
    3074:	8b 55 0c             	mov    0xc(%ebp),%edx
    3077:	83 c2 05             	add    $0x5,%edx
    307a:	ff 75 10             	pushl  0x10(%ebp)
    307d:	52                   	push   %edx
    307e:	ff 75 08             	pushl  0x8(%ebp)
    3081:	8d 90 74 db ff ff    	lea    -0x248c(%eax),%edx
    3087:	52                   	push   %edx
    3088:	89 c3                	mov    %eax,%ebx
    308a:	e8 d1 dc ff ff       	call   d60 <printf@plt>
    308f:	83 c4 10             	add    $0x10,%esp
    3092:	90                   	nop
    3093:	8b 5d fc             	mov    -0x4(%ebp),%ebx
    3096:	c9                   	leave  
    3097:	c3                   	ret    

00003098 <usage>:
    3098:	55                   	push   %ebp
    3099:	89 e5                	mov    %esp,%ebp
    309b:	53                   	push   %ebx
    309c:	83 ec 04             	sub    $0x4,%esp
    309f:	e8 fc de ff ff       	call   fa0 <__x86.get_pc_thunk.bx>
    30a4:	81 c3 b4 3e 00 00    	add    $0x3eb4,%ebx
    30aa:	8b 83 90 00 00 00    	mov    0x90(%ebx),%eax
    30b0:	8b 00                	mov    (%eax),%eax
    30b2:	50                   	push   %eax
    30b3:	6a 2f                	push   $0x2f
    30b5:	6a 01                	push   $0x1
    30b7:	8d 83 94 db ff ff    	lea    -0x246c(%ebx),%eax
    30bd:	50                   	push   %eax
    30be:	e8 3d dd ff ff       	call   e00 <fwrite@plt>
    30c3:	83 c4 10             	add    $0x10,%esp
    30c6:	8b 83 90 00 00 00    	mov    0x90(%ebx),%eax
    30cc:	8b 00                	mov    (%eax),%eax
    30ce:	50                   	push   %eax
    30cf:	6a 08                	push   $0x8
    30d1:	6a 01                	push   $0x1
    30d3:	8d 83 c4 db ff ff    	lea    -0x243c(%ebx),%eax
    30d9:	50                   	push   %eax
    30da:	e8 21 dd ff ff       	call   e00 <fwrite@plt>
    30df:	83 c4 10             	add    $0x10,%esp
    30e2:	8b 83 90 00 00 00    	mov    0x90(%ebx),%eax
    30e8:	8b 00                	mov    (%eax),%eax
    30ea:	50                   	push   %eax
    30eb:	6a 2c                	push   $0x2c
    30ed:	6a 01                	push   $0x1
    30ef:	8d 83 d0 db ff ff    	lea    -0x2430(%ebx),%eax
    30f5:	50                   	push   %eax
    30f6:	e8 05 dd ff ff       	call   e00 <fwrite@plt>
    30fb:	83 c4 10             	add    $0x10,%esp
    30fe:	8b 83 90 00 00 00    	mov    0x90(%ebx),%eax
    3104:	8b 00                	mov    (%eax),%eax
    3106:	50                   	push   %eax
    3107:	6a 2a                	push   $0x2a
    3109:	6a 01                	push   $0x1
    310b:	8d 83 00 dc ff ff    	lea    -0x2400(%ebx),%eax
    3111:	50                   	push   %eax
    3112:	e8 e9 dc ff ff       	call   e00 <fwrite@plt>
    3117:	83 c4 10             	add    $0x10,%esp
    311a:	8b 83 90 00 00 00    	mov    0x90(%ebx),%eax
    3120:	8b 00                	mov    (%eax),%eax
    3122:	50                   	push   %eax
    3123:	6a 32                	push   $0x32
    3125:	6a 01                	push   $0x1
    3127:	8d 83 2c dc ff ff    	lea    -0x23d4(%ebx),%eax
    312d:	50                   	push   %eax
    312e:	e8 cd dc ff ff       	call   e00 <fwrite@plt>
    3133:	83 c4 10             	add    $0x10,%esp
    3136:	8b 83 90 00 00 00    	mov    0x90(%ebx),%eax
    313c:	8b 00                	mov    (%eax),%eax
    313e:	50                   	push   %eax
    313f:	6a 20                	push   $0x20
    3141:	6a 01                	push   $0x1
    3143:	8d 83 60 dc ff ff    	lea    -0x23a0(%ebx),%eax
    3149:	50                   	push   %eax
    314a:	e8 b1 dc ff ff       	call   e00 <fwrite@plt>
    314f:	83 c4 10             	add    $0x10,%esp
    3152:	8b 83 90 00 00 00    	mov    0x90(%ebx),%eax
    3158:	8b 00                	mov    (%eax),%eax
    315a:	50                   	push   %eax
    315b:	6a 25                	push   $0x25
    315d:	6a 01                	push   $0x1
    315f:	8d 83 84 dc ff ff    	lea    -0x237c(%ebx),%eax
    3165:	50                   	push   %eax
    3166:	e8 95 dc ff ff       	call   e00 <fwrite@plt>
    316b:	83 c4 10             	add    $0x10,%esp
    316e:	8b 83 90 00 00 00    	mov    0x90(%ebx),%eax
    3174:	8b 00                	mov    (%eax),%eax
    3176:	50                   	push   %eax
    3177:	6a 2e                	push   $0x2e
    3179:	6a 01                	push   $0x1
    317b:	8d 83 ac dc ff ff    	lea    -0x2354(%ebx),%eax
    3181:	50                   	push   %eax
    3182:	e8 79 dc ff ff       	call   e00 <fwrite@plt>
    3187:	83 c4 10             	add    $0x10,%esp
    318a:	8b 83 90 00 00 00    	mov    0x90(%ebx),%eax
    3190:	8b 00                	mov    (%eax),%eax
    3192:	50                   	push   %eax
    3193:	6a 34                	push   $0x34
    3195:	6a 01                	push   $0x1
    3197:	8d 83 dc dc ff ff    	lea    -0x2324(%ebx),%eax
    319d:	50                   	push   %eax
    319e:	e8 5d dc ff ff       	call   e00 <fwrite@plt>
    31a3:	83 c4 10             	add    $0x10,%esp
    31a6:	8b 83 90 00 00 00    	mov    0x90(%ebx),%eax
    31ac:	8b 00                	mov    (%eax),%eax
    31ae:	50                   	push   %eax
    31af:	6a 29                	push   $0x29
    31b1:	6a 01                	push   $0x1
    31b3:	8d 83 14 dd ff ff    	lea    -0x22ec(%ebx),%eax
    31b9:	50                   	push   %eax
    31ba:	e8 41 dc ff ff       	call   e00 <fwrite@plt>
    31bf:	83 c4 10             	add    $0x10,%esp
    31c2:	90                   	nop
    31c3:	8b 5d fc             	mov    -0x4(%ebp),%ebx
    31c6:	c9                   	leave  
    31c7:	c3                   	ret    

000031c8 <__x86.get_pc_thunk.ax>:
    31c8:	8b 04 24             	mov    (%esp),%eax
    31cb:	c3                   	ret    

000031cc <mm_init>:
    31cc:	55                   	push   %ebp
    31cd:	89 e5                	mov    %esp,%ebp
    31cf:	53                   	push   %ebx
    31d0:	83 ec 04             	sub    $0x4,%esp
    31d3:	e8 c8 dd ff ff       	call   fa0 <__x86.get_pc_thunk.bx>
    31d8:	81 c3 80 3d 00 00    	add    $0x3d80,%ebx
    31de:	83 ec 0c             	sub    $0xc,%esp
    31e1:	6a 10                	push   $0x10
    31e3:	e8 28 06 00 00       	call   3810 <mem_sbrk>
    31e8:	83 c4 10             	add    $0x10,%esp
    31eb:	89 83 38 05 00 00    	mov    %eax,0x538(%ebx)
    31f1:	8b 83 38 05 00 00    	mov    0x538(%ebx),%eax
    31f7:	83 f8 ff             	cmp    $0xffffffff,%eax
    31fa:	75 07                	jne    3203 <mm_init+0x37>
    31fc:	b8 ff ff ff ff       	mov    $0xffffffff,%eax
    3201:	eb 68                	jmp    326b <mm_init+0x9f>
    3203:	8b 83 38 05 00 00    	mov    0x538(%ebx),%eax
    3209:	c7 00 00 00 00 00    	movl   $0x0,(%eax)
    320f:	8b 83 38 05 00 00    	mov    0x538(%ebx),%eax
    3215:	83 c0 04             	add    $0x4,%eax
    3218:	c7 00 09 00 00 00    	movl   $0x9,(%eax)
    321e:	8b 83 38 05 00 00    	mov    0x538(%ebx),%eax
    3224:	83 c0 08             	add    $0x8,%eax
    3227:	c7 00 09 00 00 00    	movl   $0x9,(%eax)
    322d:	8b 83 38 05 00 00    	mov    0x538(%ebx),%eax
    3233:	83 c0 0c             	add    $0xc,%eax
    3236:	c7 00 01 00 00 00    	movl   $0x1,(%eax)
    323c:	8b 83 38 05 00 00    	mov    0x538(%ebx),%eax
    3242:	83 c0 08             	add    $0x8,%eax
    3245:	89 83 38 05 00 00    	mov    %eax,0x538(%ebx)
    324b:	83 ec 0c             	sub    $0xc,%esp
    324e:	68 00 04 00 00       	push   $0x400
    3253:	e8 18 00 00 00       	call   3270 <extend_heap>
    3258:	83 c4 10             	add    $0x10,%esp
    325b:	85 c0                	test   %eax,%eax
    325d:	75 07                	jne    3266 <mm_init+0x9a>
    325f:	b8 ff ff ff ff       	mov    $0xffffffff,%eax
    3264:	eb 05                	jmp    326b <mm_init+0x9f>
    3266:	b8 00 00 00 00       	mov    $0x0,%eax
    326b:	8b 5d fc             	mov    -0x4(%ebp),%ebx
    326e:	c9                   	leave  
    326f:	c3                   	ret    

00003270 <extend_heap>:
    3270:	55                   	push   %ebp
    3271:	89 e5                	mov    %esp,%ebp
    3273:	53                   	push   %ebx
    3274:	83 ec 14             	sub    $0x14,%esp
    3277:	e8 1d de ff ff       	call   1099 <__x86.get_pc_thunk.dx>
    327c:	81 c2 dc 3c 00 00    	add    $0x3cdc,%edx
    3282:	8b 45 08             	mov    0x8(%ebp),%eax
    3285:	83 e0 01             	and    $0x1,%eax
    3288:	85 c0                	test   %eax,%eax
    328a:	74 0b                	je     3297 <extend_heap+0x27>
    328c:	8b 45 08             	mov    0x8(%ebp),%eax
    328f:	83 c0 01             	add    $0x1,%eax
    3292:	c1 e0 02             	shl    $0x2,%eax
    3295:	eb 06                	jmp    329d <extend_heap+0x2d>
    3297:	8b 45 08             	mov    0x8(%ebp),%eax
    329a:	c1 e0 02             	shl    $0x2,%eax
    329d:	89 45 f0             	mov    %eax,-0x10(%ebp)
    32a0:	8b 45 f0             	mov    -0x10(%ebp),%eax
    32a3:	83 ec 0c             	sub    $0xc,%esp
    32a6:	50                   	push   %eax
    32a7:	89 d3                	mov    %edx,%ebx
    32a9:	e8 62 05 00 00       	call   3810 <mem_sbrk>
    32ae:	83 c4 10             	add    $0x10,%esp
    32b1:	89 45 f4             	mov    %eax,-0xc(%ebp)
    32b4:	83 7d f4 ff          	cmpl   $0xffffffff,-0xc(%ebp)
    32b8:	75 07                	jne    32c1 <extend_heap+0x51>
    32ba:	b8 00 00 00 00       	mov    $0x0,%eax
    32bf:	eb 4a                	jmp    330b <extend_heap+0x9b>
    32c1:	8b 45 f4             	mov    -0xc(%ebp),%eax
    32c4:	8d 50 fc             	lea    -0x4(%eax),%edx
    32c7:	8b 45 f0             	mov    -0x10(%ebp),%eax
    32ca:	89 02                	mov    %eax,(%edx)
    32cc:	8b 45 f4             	mov    -0xc(%ebp),%eax
    32cf:	83 e8 04             	sub    $0x4,%eax
    32d2:	8b 00                	mov    (%eax),%eax
    32d4:	83 e0 f8             	and    $0xfffffff8,%eax
    32d7:	8d 50 f8             	lea    -0x8(%eax),%edx
    32da:	8b 45 f4             	mov    -0xc(%ebp),%eax
    32dd:	01 c2                	add    %eax,%edx
    32df:	8b 45 f0             	mov    -0x10(%ebp),%eax
    32e2:	89 02                	mov    %eax,(%edx)
    32e4:	8b 45 f4             	mov    -0xc(%ebp),%eax
    32e7:	83 e8 04             	sub    $0x4,%eax
    32ea:	8b 00                	mov    (%eax),%eax
    32ec:	83 e0 f8             	and    $0xfffffff8,%eax
    32ef:	8d 50 fc             	lea    -0x4(%eax),%edx
    32f2:	8b 45 f4             	mov    -0xc(%ebp),%eax
    32f5:	01 d0                	add    %edx,%eax
    32f7:	c7 00 01 00 00 00    	movl   $0x1,(%eax)
    32fd:	83 ec 0c             	sub    $0xc,%esp
    3300:	ff 75 f4             	pushl  -0xc(%ebp)
    3303:	e8 4f 02 00 00       	call   3557 <coalesce>
    3308:	83 c4 10             	add    $0x10,%esp
    330b:	8b 5d fc             	mov    -0x4(%ebp),%ebx
    330e:	c9                   	leave  
    330f:	c3                   	ret    

00003310 <mm_malloc>:
    3310:	55                   	push   %ebp
    3311:	89 e5                	mov    %esp,%ebp
    3313:	83 ec 18             	sub    $0x18,%esp
    3316:	e8 ad fe ff ff       	call   31c8 <__x86.get_pc_thunk.ax>
    331b:	05 3d 3c 00 00       	add    $0x3c3d,%eax
    3320:	83 7d 08 00          	cmpl   $0x0,0x8(%ebp)
    3324:	75 0a                	jne    3330 <mm_malloc+0x20>
    3326:	b8 00 00 00 00       	mov    $0x0,%eax
    332b:	e9 91 00 00 00       	jmp    33c1 <mm_malloc+0xb1>
    3330:	83 7d 08 08          	cmpl   $0x8,0x8(%ebp)
    3334:	77 09                	ja     333f <mm_malloc+0x2f>
    3336:	c7 45 ec 10 00 00 00 	movl   $0x10,-0x14(%ebp)
    333d:	eb 0c                	jmp    334b <mm_malloc+0x3b>
    333f:	8b 45 08             	mov    0x8(%ebp),%eax
    3342:	83 c0 0f             	add    $0xf,%eax
    3345:	83 e0 f8             	and    $0xfffffff8,%eax
    3348:	89 45 ec             	mov    %eax,-0x14(%ebp)
    334b:	83 ec 0c             	sub    $0xc,%esp
    334e:	ff 75 ec             	pushl  -0x14(%ebp)
    3351:	e8 6d 00 00 00       	call   33c3 <find_fit>
    3356:	83 c4 10             	add    $0x10,%esp
    3359:	89 45 f0             	mov    %eax,-0x10(%ebp)
    335c:	83 7d f0 00          	cmpl   $0x0,-0x10(%ebp)
    3360:	74 16                	je     3378 <mm_malloc+0x68>
    3362:	83 ec 08             	sub    $0x8,%esp
    3365:	ff 75 ec             	pushl  -0x14(%ebp)
    3368:	ff 75 f0             	pushl  -0x10(%ebp)
    336b:	e8 b7 00 00 00       	call   3427 <place>
    3370:	83 c4 10             	add    $0x10,%esp
    3373:	8b 45 f0             	mov    -0x10(%ebp),%eax
    3376:	eb 49                	jmp    33c1 <mm_malloc+0xb1>
    3378:	b8 00 10 00 00       	mov    $0x1000,%eax
    337d:	81 7d ec 00 10 00 00 	cmpl   $0x1000,-0x14(%ebp)
    3384:	0f 43 45 ec          	cmovae -0x14(%ebp),%eax
    3388:	89 45 f4             	mov    %eax,-0xc(%ebp)
    338b:	8b 45 f4             	mov    -0xc(%ebp),%eax
    338e:	c1 e8 02             	shr    $0x2,%eax
    3391:	83 ec 0c             	sub    $0xc,%esp
    3394:	50                   	push   %eax
    3395:	e8 d6 fe ff ff       	call   3270 <extend_heap>
    339a:	83 c4 10             	add    $0x10,%esp
    339d:	89 45 f0             	mov    %eax,-0x10(%ebp)
    33a0:	83 7d f0 00          	cmpl   $0x0,-0x10(%ebp)
    33a4:	75 07                	jne    33ad <mm_malloc+0x9d>
    33a6:	b8 00 00 00 00       	mov    $0x0,%eax
    33ab:	eb 14                	jmp    33c1 <mm_malloc+0xb1>
    33ad:	83 ec 08             	sub    $0x8,%esp
    33b0:	ff 75 ec             	pushl  -0x14(%ebp)
    33b3:	ff 75 f0             	pushl  -0x10(%ebp)
    33b6:	e8 6c 00 00 00       	call   3427 <place>
    33bb:	83 c4 10             	add    $0x10,%esp
    33be:	8b 45 f0             	mov    -0x10(%ebp),%eax
    33c1:	c9                   	leave  
    33c2:	c3                   	ret    

000033c3 <find_fit>:
    33c3:	55                   	push   %ebp
    33c4:	89 e5                	mov    %esp,%ebp
    33c6:	83 ec 10             	sub    $0x10,%esp
    33c9:	e8 fa fd ff ff       	call   31c8 <__x86.get_pc_thunk.ax>
    33ce:	05 8a 3b 00 00       	add    $0x3b8a,%eax
    33d3:	8b 80 38 05 00 00    	mov    0x538(%eax),%eax
    33d9:	83 c0 08             	add    $0x8,%eax
    33dc:	89 45 fc             	mov    %eax,-0x4(%ebp)
    33df:	eb 32                	jmp    3413 <find_fit+0x50>
    33e1:	8b 45 fc             	mov    -0x4(%ebp),%eax
    33e4:	83 e8 04             	sub    $0x4,%eax
    33e7:	8b 00                	mov    (%eax),%eax
    33e9:	83 e0 01             	and    $0x1,%eax
    33ec:	85 c0                	test   %eax,%eax
    33ee:	75 15                	jne    3405 <find_fit+0x42>
    33f0:	8b 45 fc             	mov    -0x4(%ebp),%eax
    33f3:	83 e8 04             	sub    $0x4,%eax
    33f6:	8b 00                	mov    (%eax),%eax
    33f8:	83 e0 f8             	and    $0xfffffff8,%eax
    33fb:	39 45 08             	cmp    %eax,0x8(%ebp)
    33fe:	77 05                	ja     3405 <find_fit+0x42>
    3400:	8b 45 fc             	mov    -0x4(%ebp),%eax
    3403:	eb 20                	jmp    3425 <find_fit+0x62>
    3405:	8b 45 fc             	mov    -0x4(%ebp),%eax
    3408:	83 e8 04             	sub    $0x4,%eax
    340b:	8b 00                	mov    (%eax),%eax
    340d:	83 e0 f8             	and    $0xfffffff8,%eax
    3410:	01 45 fc             	add    %eax,-0x4(%ebp)
    3413:	8b 45 fc             	mov    -0x4(%ebp),%eax
    3416:	83 e8 04             	sub    $0x4,%eax
    3419:	8b 00                	mov    (%eax),%eax
    341b:	83 f8 01             	cmp    $0x1,%eax
    341e:	75 c1                	jne    33e1 <find_fit+0x1e>
    3420:	b8 00 00 00 00       	mov    $0x0,%eax
    3425:	c9                   	leave  
    3426:	c3                   	ret    

00003427 <place>:
    3427:	55                   	push   %ebp
    3428:	89 e5                	mov    %esp,%ebp
    342a:	83 ec 10             	sub    $0x10,%esp
    342d:	e8 96 fd ff ff       	call   31c8 <__x86.get_pc_thunk.ax>
    3432:	05 26 3b 00 00       	add    $0x3b26,%eax
    3437:	8b 45 08             	mov    0x8(%ebp),%eax
    343a:	83 e8 04             	sub    $0x4,%eax
    343d:	8b 00                	mov    (%eax),%eax
    343f:	83 e0 f8             	and    $0xfffffff8,%eax
    3442:	2b 45 0c             	sub    0xc(%ebp),%eax
    3445:	89 45 fc             	mov    %eax,-0x4(%ebp)
    3448:	83 7d fc 0f          	cmpl   $0xf,-0x4(%ebp)
    344c:	76 77                	jbe    34c5 <place+0x9e>
    344e:	8b 45 08             	mov    0x8(%ebp),%eax
    3451:	83 e8 04             	sub    $0x4,%eax
    3454:	8b 55 0c             	mov    0xc(%ebp),%edx
    3457:	83 ca 01             	or     $0x1,%edx
    345a:	89 10                	mov    %edx,(%eax)
    345c:	8b 45 08             	mov    0x8(%ebp),%eax
    345f:	83 e8 04             	sub    $0x4,%eax
    3462:	8b 00                	mov    (%eax),%eax
    3464:	83 e0 f8             	and    $0xfffffff8,%eax
    3467:	8d 50 f8             	lea    -0x8(%eax),%edx
    346a:	8b 45 08             	mov    0x8(%ebp),%eax
    346d:	01 d0                	add    %edx,%eax
    346f:	8b 55 0c             	mov    0xc(%ebp),%edx
    3472:	83 ca 01             	or     $0x1,%edx
    3475:	89 10                	mov    %edx,(%eax)
    3477:	8b 45 08             	mov    0x8(%ebp),%eax
    347a:	83 e8 04             	sub    $0x4,%eax
    347d:	8b 00                	mov    (%eax),%eax
    347f:	83 e0 f8             	and    $0xfffffff8,%eax
    3482:	8d 50 fc             	lea    -0x4(%eax),%edx
    3485:	8b 45 08             	mov    0x8(%ebp),%eax
    3488:	01 c2                	add    %eax,%edx
    348a:	8b 45 fc             	mov    -0x4(%ebp),%eax
    348d:	89 02                	mov    %eax,(%edx)
    348f:	8b 45 08             	mov    0x8(%ebp),%eax
    3492:	83 e8 04             	sub    $0x4,%eax
    3495:	8b 00                	mov    (%eax),%eax
    3497:	83 e0 f8             	and    $0xfffffff8,%eax
    349a:	89 c2                	mov    %eax,%edx
    349c:	8b 45 08             	mov    0x8(%ebp),%eax
    349f:	83 e8 04             	sub    $0x4,%eax
    34a2:	8b 00                	mov    (%eax),%eax
    34a4:	83 e0 f8             	and    $0xfffffff8,%eax
    34a7:	8d 48 fc             	lea    -0x4(%eax),%ecx
    34aa:	8b 45 08             	mov    0x8(%ebp),%eax
    34ad:	01 c8                	add    %ecx,%eax
    34af:	8b 00                	mov    (%eax),%eax
    34b1:	83 e0 f8             	and    $0xfffffff8,%eax
    34b4:	01 d0                	add    %edx,%eax
    34b6:	8d 50 f8             	lea    -0x8(%eax),%edx
    34b9:	8b 45 08             	mov    0x8(%ebp),%eax
    34bc:	01 c2                	add    %eax,%edx
    34be:	8b 45 fc             	mov    -0x4(%ebp),%eax
    34c1:	89 02                	mov    %eax,(%edx)
    34c3:	eb 3d                	jmp    3502 <place+0xdb>
    34c5:	8b 45 08             	mov    0x8(%ebp),%eax
    34c8:	83 e8 04             	sub    $0x4,%eax
    34cb:	8b 00                	mov    (%eax),%eax
    34cd:	83 e0 f8             	and    $0xfffffff8,%eax
    34d0:	89 c2                	mov    %eax,%edx
    34d2:	8b 45 08             	mov    0x8(%ebp),%eax
    34d5:	83 e8 04             	sub    $0x4,%eax
    34d8:	83 ca 01             	or     $0x1,%edx
    34db:	89 10                	mov    %edx,(%eax)
    34dd:	8b 45 08             	mov    0x8(%ebp),%eax
    34e0:	83 e8 04             	sub    $0x4,%eax
    34e3:	8b 00                	mov    (%eax),%eax
    34e5:	83 e0 f8             	and    $0xfffffff8,%eax
    34e8:	89 c2                	mov    %eax,%edx
    34ea:	8b 45 08             	mov    0x8(%ebp),%eax
    34ed:	83 e8 04             	sub    $0x4,%eax
    34f0:	8b 00                	mov    (%eax),%eax
    34f2:	83 e0 f8             	and    $0xfffffff8,%eax
    34f5:	8d 48 f8             	lea    -0x8(%eax),%ecx
    34f8:	8b 45 08             	mov    0x8(%ebp),%eax
    34fb:	01 c8                	add    %ecx,%eax
    34fd:	83 ca 01             	or     $0x1,%edx
    3500:	89 10                	mov    %edx,(%eax)
    3502:	90                   	nop
    3503:	c9                   	leave  
    3504:	c3                   	ret    

00003505 <mm_free>:
    3505:	55                   	push   %ebp
    3506:	89 e5                	mov    %esp,%ebp
    3508:	83 ec 18             	sub    $0x18,%esp
    350b:	e8 b8 fc ff ff       	call   31c8 <__x86.get_pc_thunk.ax>
    3510:	05 48 3a 00 00       	add    $0x3a48,%eax
    3515:	8b 45 08             	mov    0x8(%ebp),%eax
    3518:	83 e8 04             	sub    $0x4,%eax
    351b:	8b 00                	mov    (%eax),%eax
    351d:	83 e0 f8             	and    $0xfffffff8,%eax
    3520:	89 45 f4             	mov    %eax,-0xc(%ebp)
    3523:	8b 45 08             	mov    0x8(%ebp),%eax
    3526:	8d 50 fc             	lea    -0x4(%eax),%edx
    3529:	8b 45 f4             	mov    -0xc(%ebp),%eax
    352c:	89 02                	mov    %eax,(%edx)
    352e:	8b 45 08             	mov    0x8(%ebp),%eax
    3531:	83 e8 04             	sub    $0x4,%eax
    3534:	8b 00                	mov    (%eax),%eax
    3536:	83 e0 f8             	and    $0xfffffff8,%eax
    3539:	8d 50 f8             	lea    -0x8(%eax),%edx
    353c:	8b 45 08             	mov    0x8(%ebp),%eax
    353f:	01 c2                	add    %eax,%edx
    3541:	8b 45 f4             	mov    -0xc(%ebp),%eax
    3544:	89 02                	mov    %eax,(%edx)
    3546:	83 ec 0c             	sub    $0xc,%esp
    3549:	ff 75 08             	pushl  0x8(%ebp)
    354c:	e8 06 00 00 00       	call   3557 <coalesce>
    3551:	83 c4 10             	add    $0x10,%esp
    3554:	90                   	nop
    3555:	c9                   	leave  
    3556:	c3                   	ret    

00003557 <coalesce>:
    3557:	55                   	push   %ebp
    3558:	89 e5                	mov    %esp,%ebp
    355a:	53                   	push   %ebx
    355b:	83 ec 10             	sub    $0x10,%esp
    355e:	e8 65 fc ff ff       	call   31c8 <__x86.get_pc_thunk.ax>
    3563:	05 f5 39 00 00       	add    $0x39f5,%eax
    3568:	8b 45 08             	mov    0x8(%ebp),%eax
    356b:	83 e8 08             	sub    $0x8,%eax
    356e:	8b 00                	mov    (%eax),%eax
    3570:	83 e0 f8             	and    $0xfffffff8,%eax
    3573:	ba fc ff ff ff       	mov    $0xfffffffc,%edx
    3578:	29 c2                	sub    %eax,%edx
    357a:	8b 45 08             	mov    0x8(%ebp),%eax
    357d:	01 d0                	add    %edx,%eax
    357f:	8b 00                	mov    (%eax),%eax
    3581:	83 e0 f8             	and    $0xfffffff8,%eax
    3584:	89 c2                	mov    %eax,%edx
    3586:	8b 45 08             	mov    0x8(%ebp),%eax
    3589:	83 e8 08             	sub    $0x8,%eax
    358c:	8b 00                	mov    (%eax),%eax
    358e:	83 e0 f8             	and    $0xfffffff8,%eax
    3591:	29 c2                	sub    %eax,%edx
    3593:	89 d0                	mov    %edx,%eax
    3595:	8d 50 f8             	lea    -0x8(%eax),%edx
    3598:	8b 45 08             	mov    0x8(%ebp),%eax
    359b:	01 d0                	add    %edx,%eax
    359d:	8b 00                	mov    (%eax),%eax
    359f:	83 e0 01             	and    $0x1,%eax
    35a2:	89 45 f0             	mov    %eax,-0x10(%ebp)
    35a5:	8b 45 08             	mov    0x8(%ebp),%eax
    35a8:	83 e8 04             	sub    $0x4,%eax
    35ab:	8b 00                	mov    (%eax),%eax
    35ad:	83 e0 f8             	and    $0xfffffff8,%eax
    35b0:	8d 50 fc             	lea    -0x4(%eax),%edx
    35b3:	8b 45 08             	mov    0x8(%ebp),%eax
    35b6:	01 d0                	add    %edx,%eax
    35b8:	8b 00                	mov    (%eax),%eax
    35ba:	83 e0 01             	and    $0x1,%eax
    35bd:	89 45 f4             	mov    %eax,-0xc(%ebp)
    35c0:	8b 45 08             	mov    0x8(%ebp),%eax
    35c3:	83 e8 04             	sub    $0x4,%eax
    35c6:	8b 00                	mov    (%eax),%eax
    35c8:	83 e0 f8             	and    $0xfffffff8,%eax
    35cb:	89 45 f8             	mov    %eax,-0x8(%ebp)
    35ce:	83 7d f0 00          	cmpl   $0x0,-0x10(%ebp)
    35d2:	74 0e                	je     35e2 <coalesce+0x8b>
    35d4:	83 7d f4 00          	cmpl   $0x0,-0xc(%ebp)
    35d8:	74 08                	je     35e2 <coalesce+0x8b>
    35da:	8b 45 08             	mov    0x8(%ebp),%eax
    35dd:	e9 7d 01 00 00       	jmp    375f <coalesce+0x208>
    35e2:	83 7d f0 00          	cmpl   $0x0,-0x10(%ebp)
    35e6:	74 49                	je     3631 <coalesce+0xda>
    35e8:	83 7d f4 00          	cmpl   $0x0,-0xc(%ebp)
    35ec:	75 43                	jne    3631 <coalesce+0xda>
    35ee:	8b 45 08             	mov    0x8(%ebp),%eax
    35f1:	83 e8 04             	sub    $0x4,%eax
    35f4:	8b 00                	mov    (%eax),%eax
    35f6:	83 e0 f8             	and    $0xfffffff8,%eax
    35f9:	8d 50 fc             	lea    -0x4(%eax),%edx
    35fc:	8b 45 08             	mov    0x8(%ebp),%eax
    35ff:	01 d0                	add    %edx,%eax
    3601:	8b 00                	mov    (%eax),%eax
    3603:	83 e0 f8             	and    $0xfffffff8,%eax
    3606:	01 45 f8             	add    %eax,-0x8(%ebp)
    3609:	8b 45 08             	mov    0x8(%ebp),%eax
    360c:	8d 50 fc             	lea    -0x4(%eax),%edx
    360f:	8b 45 f8             	mov    -0x8(%ebp),%eax
    3612:	89 02                	mov    %eax,(%edx)
    3614:	8b 45 08             	mov    0x8(%ebp),%eax
    3617:	83 e8 04             	sub    $0x4,%eax
    361a:	8b 00                	mov    (%eax),%eax
    361c:	83 e0 f8             	and    $0xfffffff8,%eax
    361f:	8d 50 f8             	lea    -0x8(%eax),%edx
    3622:	8b 45 08             	mov    0x8(%ebp),%eax
    3625:	01 c2                	add    %eax,%edx
    3627:	8b 45 f8             	mov    -0x8(%ebp),%eax
    362a:	89 02                	mov    %eax,(%edx)
    362c:	e9 2b 01 00 00       	jmp    375c <coalesce+0x205>
    3631:	83 7d f0 00          	cmpl   $0x0,-0x10(%ebp)
    3635:	75 6e                	jne    36a5 <coalesce+0x14e>
    3637:	83 7d f4 00          	cmpl   $0x0,-0xc(%ebp)
    363b:	74 68                	je     36a5 <coalesce+0x14e>
    363d:	8b 45 08             	mov    0x8(%ebp),%eax
    3640:	83 e8 08             	sub    $0x8,%eax
    3643:	8b 00                	mov    (%eax),%eax
    3645:	83 e0 f8             	and    $0xfffffff8,%eax
    3648:	ba fc ff ff ff       	mov    $0xfffffffc,%edx
    364d:	29 c2                	sub    %eax,%edx
    364f:	8b 45 08             	mov    0x8(%ebp),%eax
    3652:	01 d0                	add    %edx,%eax
    3654:	8b 00                	mov    (%eax),%eax
    3656:	83 e0 f8             	and    $0xfffffff8,%eax
    3659:	01 45 f8             	add    %eax,-0x8(%ebp)
    365c:	8b 45 08             	mov    0x8(%ebp),%eax
    365f:	83 e8 04             	sub    $0x4,%eax
    3662:	8b 00                	mov    (%eax),%eax
    3664:	83 e0 f8             	and    $0xfffffff8,%eax
    3667:	8d 50 f8             	lea    -0x8(%eax),%edx
    366a:	8b 45 08             	mov    0x8(%ebp),%eax
    366d:	01 c2                	add    %eax,%edx
    366f:	8b 45 f8             	mov    -0x8(%ebp),%eax
    3672:	89 02                	mov    %eax,(%edx)
    3674:	8b 45 08             	mov    0x8(%ebp),%eax
    3677:	83 e8 08             	sub    $0x8,%eax
    367a:	8b 00                	mov    (%eax),%eax
    367c:	83 e0 f8             	and    $0xfffffff8,%eax
    367f:	ba fc ff ff ff       	mov    $0xfffffffc,%edx
    3684:	29 c2                	sub    %eax,%edx
    3686:	8b 45 08             	mov    0x8(%ebp),%eax
    3689:	01 c2                	add    %eax,%edx
    368b:	8b 45 f8             	mov    -0x8(%ebp),%eax
    368e:	89 02                	mov    %eax,(%edx)
    3690:	8b 45 08             	mov    0x8(%ebp),%eax
    3693:	83 e8 08             	sub    $0x8,%eax
    3696:	8b 00                	mov    (%eax),%eax
    3698:	83 e0 f8             	and    $0xfffffff8,%eax
    369b:	f7 d8                	neg    %eax
    369d:	01 45 08             	add    %eax,0x8(%ebp)
    36a0:	e9 b7 00 00 00       	jmp    375c <coalesce+0x205>
    36a5:	8b 45 08             	mov    0x8(%ebp),%eax
    36a8:	83 e8 08             	sub    $0x8,%eax
    36ab:	8b 00                	mov    (%eax),%eax
    36ad:	83 e0 f8             	and    $0xfffffff8,%eax
    36b0:	ba fc ff ff ff       	mov    $0xfffffffc,%edx
    36b5:	29 c2                	sub    %eax,%edx
    36b7:	8b 45 08             	mov    0x8(%ebp),%eax
    36ba:	01 d0                	add    %edx,%eax
    36bc:	8b 00                	mov    (%eax),%eax
    36be:	83 e0 f8             	and    $0xfffffff8,%eax
    36c1:	89 c2                	mov    %eax,%edx
    36c3:	8b 45 08             	mov    0x8(%ebp),%eax
    36c6:	83 e8 04             	sub    $0x4,%eax
    36c9:	8b 00                	mov    (%eax),%eax
    36cb:	83 e0 f8             	and    $0xfffffff8,%eax
    36ce:	89 c1                	mov    %eax,%ecx
    36d0:	8b 45 08             	mov    0x8(%ebp),%eax
    36d3:	83 e8 04             	sub    $0x4,%eax
    36d6:	8b 00                	mov    (%eax),%eax
    36d8:	83 e0 f8             	and    $0xfffffff8,%eax
    36db:	8d 58 fc             	lea    -0x4(%eax),%ebx
    36de:	8b 45 08             	mov    0x8(%ebp),%eax
    36e1:	01 d8                	add    %ebx,%eax
    36e3:	8b 00                	mov    (%eax),%eax
    36e5:	83 e0 f8             	and    $0xfffffff8,%eax
    36e8:	01 c8                	add    %ecx,%eax
    36ea:	8d 48 f8             	lea    -0x8(%eax),%ecx
    36ed:	8b 45 08             	mov    0x8(%ebp),%eax
    36f0:	01 c8                	add    %ecx,%eax
    36f2:	8b 00                	mov    (%eax),%eax
    36f4:	83 e0 f8             	and    $0xfffffff8,%eax
    36f7:	01 d0                	add    %edx,%eax
    36f9:	01 45 f8             	add    %eax,-0x8(%ebp)
    36fc:	8b 45 08             	mov    0x8(%ebp),%eax
    36ff:	83 e8 08             	sub    $0x8,%eax
    3702:	8b 00                	mov    (%eax),%eax
    3704:	83 e0 f8             	and    $0xfffffff8,%eax
    3707:	ba fc ff ff ff       	mov    $0xfffffffc,%edx
    370c:	29 c2                	sub    %eax,%edx
    370e:	8b 45 08             	mov    0x8(%ebp),%eax
    3711:	01 c2                	add    %eax,%edx
    3713:	8b 45 f8             	mov    -0x8(%ebp),%eax
    3716:	89 02                	mov    %eax,(%edx)
    3718:	8b 45 08             	mov    0x8(%ebp),%eax
    371b:	83 e8 04             	sub    $0x4,%eax
    371e:	8b 00                	mov    (%eax),%eax
    3720:	83 e0 f8             	and    $0xfffffff8,%eax
    3723:	89 c2                	mov    %eax,%edx
    3725:	8b 45 08             	mov    0x8(%ebp),%eax
    3728:	83 e8 04             	sub    $0x4,%eax
    372b:	8b 00                	mov    (%eax),%eax
    372d:	83 e0 f8             	and    $0xfffffff8,%eax
    3730:	8d 48 fc             	lea    -0x4(%eax),%ecx
    3733:	8b 45 08             	mov    0x8(%ebp),%eax
    3736:	01 c8                	add    %ecx,%eax
    3738:	8b 00                	mov    (%eax),%eax
    373a:	83 e0 f8             	and    $0xfffffff8,%eax
    373d:	01 d0                	add    %edx,%eax
    373f:	8d 50 f8             	lea    -0x8(%eax),%edx
    3742:	8b 45 08             	mov    0x8(%ebp),%eax
    3745:	01 c2                	add    %eax,%edx
    3747:	8b 45 f8             	mov    -0x8(%ebp),%eax
    374a:	89 02                	mov    %eax,(%edx)
    374c:	8b 45 08             	mov    0x8(%ebp),%eax
    374f:	83 e8 08             	sub    $0x8,%eax
    3752:	8b 00                	mov    (%eax),%eax
    3754:	83 e0 f8             	and    $0xfffffff8,%eax
    3757:	f7 d8                	neg    %eax
    3759:	01 45 08             	add    %eax,0x8(%ebp)
    375c:	8b 45 08             	mov    0x8(%ebp),%eax
    375f:	83 c4 10             	add    $0x10,%esp
    3762:	5b                   	pop    %ebx
    3763:	5d                   	pop    %ebp
    3764:	c3                   	ret    

00003765 <mm_realloc>:
    3765:	55                   	push   %ebp
    3766:	89 e5                	mov    %esp,%ebp
    3768:	e8 5b fa ff ff       	call   31c8 <__x86.get_pc_thunk.ax>
    376d:	05 eb 37 00 00       	add    $0x37eb,%eax
    3772:	b8 00 00 00 00       	mov    $0x0,%eax
    3777:	5d                   	pop    %ebp
    3778:	c3                   	ret    
    3779:	66 90                	xchg   %ax,%ax
    377b:	66 90                	xchg   %ax,%ax
    377d:	66 90                	xchg   %ax,%ax
    377f:	90                   	nop

00003780 <mem_init>:
    3780:	83 ec 1c             	sub    $0x1c,%esp
    3783:	c7 04 24 00 00 40 01 	movl   $0x1400000,(%esp)
    378a:	e8 fc ff ff ff       	call   378b <mem_init+0xb>
    378f:	85 c0                	test   %eax,%eax
    3791:	a3 9c 74 00 00       	mov    %eax,0x749c
    3796:	74 15                	je     37ad <mem_init+0x2d>
    3798:	8d 90 00 00 40 01    	lea    0x1400000(%eax),%edx
    379e:	89 15 94 74 00 00    	mov    %edx,0x7494
    37a4:	a3 98 74 00 00       	mov    %eax,0x7498
    37a9:	83 c4 1c             	add    $0x1c,%esp
    37ac:	c3                   	ret    
    37ad:	a1 00 00 00 00       	mov    0x0,%eax
    37b2:	c7 44 24 08 1a 00 00 	movl   $0x1a,0x8(%esp)
    37b9:	00 
    37ba:	c7 44 24 04 01 00 00 	movl   $0x1,0x4(%esp)
    37c1:	00 
    37c2:	c7 04 24 fc 4c 00 00 	movl   $0x4cfc,(%esp)
    37c9:	89 44 24 0c          	mov    %eax,0xc(%esp)
    37cd:	e8 fc ff ff ff       	call   37ce <mem_init+0x4e>
    37d2:	c7 04 24 01 00 00 00 	movl   $0x1,(%esp)
    37d9:	e8 fc ff ff ff       	call   37da <mem_init+0x5a>
    37de:	66 90                	xchg   %ax,%ax

000037e0 <mem_deinit>:
    37e0:	83 ec 1c             	sub    $0x1c,%esp
    37e3:	a1 9c 74 00 00       	mov    0x749c,%eax
    37e8:	89 04 24             	mov    %eax,(%esp)
    37eb:	e8 fc ff ff ff       	call   37ec <mem_deinit+0xc>
    37f0:	83 c4 1c             	add    $0x1c,%esp
    37f3:	c3                   	ret    
    37f4:	8d b6 00 00 00 00    	lea    0x0(%esi),%esi
    37fa:	8d bf 00 00 00 00    	lea    0x0(%edi),%edi

00003800 <mem_reset_brk>:
    3800:	a1 9c 74 00 00       	mov    0x749c,%eax
    3805:	a3 98 74 00 00       	mov    %eax,0x7498
    380a:	c3                   	ret    
    380b:	90                   	nop
    380c:	8d 74 26 00          	lea    0x0(%esi,%eiz,1),%esi

00003810 <mem_sbrk>:
    3810:	83 ec 1c             	sub    $0x1c,%esp
    3813:	a1 98 74 00 00       	mov    0x7498,%eax
    3818:	8b 54 24 20          	mov    0x20(%esp),%edx
    381c:	85 d2                	test   %edx,%edx
    381e:	78 18                	js     3838 <mem_sbrk+0x28>
    3820:	01 c2                	add    %eax,%edx
    3822:	3b 15 94 74 00 00    	cmp    0x7494,%edx
    3828:	77 0e                	ja     3838 <mem_sbrk+0x28>
    382a:	89 15 98 74 00 00    	mov    %edx,0x7498
    3830:	83 c4 1c             	add    $0x1c,%esp
    3833:	c3                   	ret    
    3834:	8d 74 26 00          	lea    0x0(%esi,%eiz,1),%esi
    3838:	e8 fc ff ff ff       	call   3839 <mem_sbrk+0x29>
    383d:	c7 00 0c 00 00 00    	movl   $0xc,(%eax)
    3843:	a1 00 00 00 00       	mov    0x0,%eax
    3848:	c7 44 24 08 2d 00 00 	movl   $0x2d,0x8(%esp)
    384f:	00 
    3850:	c7 44 24 04 01 00 00 	movl   $0x1,0x4(%esp)
    3857:	00 
    3858:	c7 04 24 18 4d 00 00 	movl   $0x4d18,(%esp)
    385f:	89 44 24 0c          	mov    %eax,0xc(%esp)
    3863:	e8 fc ff ff ff       	call   3864 <mem_sbrk+0x54>
    3868:	b8 ff ff ff ff       	mov    $0xffffffff,%eax
    386d:	83 c4 1c             	add    $0x1c,%esp
    3870:	c3                   	ret    
    3871:	eb 0d                	jmp    3880 <mem_heap_lo>
    3873:	90                   	nop
    3874:	90                   	nop
    3875:	90                   	nop
    3876:	90                   	nop
    3877:	90                   	nop
    3878:	90                   	nop
    3879:	90                   	nop
    387a:	90                   	nop
    387b:	90                   	nop
    387c:	90                   	nop
    387d:	90                   	nop
    387e:	90                   	nop
    387f:	90                   	nop

00003880 <mem_heap_lo>:
    3880:	a1 9c 74 00 00       	mov    0x749c,%eax
    3885:	c3                   	ret    
    3886:	8d 76 00             	lea    0x0(%esi),%esi
    3889:	8d bc 27 00 00 00 00 	lea    0x0(%edi,%eiz,1),%edi

00003890 <mem_heap_hi>:
    3890:	a1 98 74 00 00       	mov    0x7498,%eax
    3895:	83 e8 01             	sub    $0x1,%eax
    3898:	c3                   	ret    
    3899:	8d b4 26 00 00 00 00 	lea    0x0(%esi,%eiz,1),%esi

000038a0 <mem_heapsize>:
    38a0:	a1 98 74 00 00       	mov    0x7498,%eax
    38a5:	2b 05 9c 74 00 00    	sub    0x749c,%eax
    38ab:	c3                   	ret    
    38ac:	8d 74 26 00          	lea    0x0(%esi,%eiz,1),%esi

000038b0 <mem_pagesize>:
    38b0:	e9 fc ff ff ff       	jmp    38b1 <mem_pagesize+0x1>
    38b5:	66 90                	xchg   %ax,%ax
    38b7:	66 90                	xchg   %ax,%ax
    38b9:	66 90                	xchg   %ax,%ax
    38bb:	66 90                	xchg   %ax,%ax
    38bd:	66 90                	xchg   %ax,%ax
    38bf:	90                   	nop

000038c0 <init_fsecs>:
    38c0:	a1 88 74 00 00       	mov    0x7488,%eax
    38c5:	d9 ee                	fldz   
    38c7:	dd 1d a0 74 00 00    	fstpl  0x74a0
    38cd:	85 c0                	test   %eax,%eax
    38cf:	75 07                	jne    38d8 <init_fsecs+0x18>
    38d1:	c3                   	ret    
    38d2:	8d b6 00 00 00 00    	lea    0x0(%esi),%esi
    38d8:	83 ec 1c             	sub    $0x1c,%esp
    38db:	c7 04 24 48 4d 00 00 	movl   $0x4d48,(%esp)
    38e2:	e8 fc ff ff ff       	call   38e3 <init_fsecs+0x23>
    38e7:	83 c4 1c             	add    $0x1c,%esp
    38ea:	c3                   	ret    
    38eb:	90                   	nop
    38ec:	8d 74 26 00          	lea    0x0(%esi,%eiz,1),%esi

000038f0 <fsecs>:
    38f0:	83 ec 1c             	sub    $0x1c,%esp
    38f3:	8b 44 24 24          	mov    0x24(%esp),%eax
    38f7:	c7 44 24 08 0a 00 00 	movl   $0xa,0x8(%esp)
    38fe:	00 
    38ff:	89 44 24 04          	mov    %eax,0x4(%esp)
    3903:	8b 44 24 20          	mov    0x20(%esp),%eax
    3907:	89 04 24             	mov    %eax,(%esp)
    390a:	e8 c1 07 00 00       	call   40d0 <ftimer_gettod>
    390f:	83 c4 1c             	add    $0x1c,%esp
    3912:	c3                   	ret    
    3913:	66 90                	xchg   %ax,%ax
    3915:	66 90                	xchg   %ax,%ax
    3917:	66 90                	xchg   %ax,%ax
    3919:	66 90                	xchg   %ax,%ax
    391b:	66 90                	xchg   %ax,%ax
    391d:	66 90                	xchg   %ax,%ax
    391f:	90                   	nop

00003920 <add_sample>:
    3920:	8b 0d ac 74 00 00    	mov    0x74ac,%ecx
    3926:	8b 15 7c 74 00 00    	mov    0x747c,%edx
    392c:	56                   	push   %esi
    392d:	a1 b0 74 00 00       	mov    0x74b0,%eax
    3932:	53                   	push   %ebx
    3933:	dd 44 24 0c          	fldl   0xc(%esp)
    3937:	39 d1                	cmp    %edx,%ecx
    3939:	7d 6d                	jge    39a8 <add_sample+0x88>
    393b:	dd 1c c8             	fstpl  (%eax,%ecx,8)
    393e:	89 ca                	mov    %ecx,%edx
    3940:	83 c1 01             	add    $0x1,%ecx
    3943:	85 d2                	test   %edx,%edx
    3945:	89 0d ac 74 00 00    	mov    %ecx,0x74ac
    394b:	7e 57                	jle    39a4 <add_sample+0x84>
    394d:	8d 34 d5 f8 ff ff ff 	lea    -0x8(,%edx,8),%esi
    3954:	8d 1c 30             	lea    (%eax,%esi,1),%ebx
    3957:	dd 03                	fldl   (%ebx)
    3959:	8d 4c 30 08          	lea    0x8(%eax,%esi,1),%ecx
    395d:	dd 01                	fldl   (%ecx)
    395f:	d9 c9                	fxch   %st(1)
    3961:	8d 44 30 f8          	lea    -0x8(%eax,%esi,1),%eax
    3965:	db e9                	fucomi %st(1),%st
    3967:	77 1f                	ja     3988 <add_sample+0x68>
    3969:	dd d8                	fstp   %st(0)
    396b:	dd d8                	fstp   %st(0)
    396d:	eb 35                	jmp    39a4 <add_sample+0x84>
    396f:	90                   	nop
    3970:	dd 00                	fldl   (%eax)
    3972:	89 c3                	mov    %eax,%ebx
    3974:	8d 48 08             	lea    0x8(%eax),%ecx
    3977:	83 e8 08             	sub    $0x8,%eax
    397a:	dd 40 10             	fldl   0x10(%eax)
    397d:	d9 c9                	fxch   %st(1)
    397f:	db e9                	fucomi %st(1),%st
    3981:	76 1d                	jbe    39a0 <add_sample+0x80>
    3983:	d9 c9                	fxch   %st(1)
    3985:	eb 09                	jmp    3990 <add_sample+0x70>
    3987:	90                   	nop
    3988:	d9 c9                	fxch   %st(1)
    398a:	8d b6 00 00 00 00    	lea    0x0(%esi),%esi
    3990:	dd 1b                	fstpl  (%ebx)
    3992:	83 ea 01             	sub    $0x1,%edx
    3995:	dd 19                	fstpl  (%ecx)
    3997:	75 d7                	jne    3970 <add_sample+0x50>
    3999:	eb 09                	jmp    39a4 <add_sample+0x84>
    399b:	90                   	nop
    399c:	8d 74 26 00          	lea    0x0(%esi,%eiz,1),%esi
    39a0:	dd d8                	fstp   %st(0)
    39a2:	dd d8                	fstp   %st(0)
    39a4:	5b                   	pop    %ebx
    39a5:	5e                   	pop    %esi
    39a6:	c3                   	ret    
    39a7:	90                   	nop
    39a8:	8d 9a ff ff ff 1f    	lea    0x1fffffff(%edx),%ebx
    39ae:	dd 04 d8             	fldl   (%eax,%ebx,8)
    39b1:	df e9                	fucomip %st(1),%st
    39b3:	76 0b                	jbe    39c0 <add_sample+0xa0>
    39b5:	83 ea 01             	sub    $0x1,%edx
    39b8:	dd 1c d8             	fstpl  (%eax,%ebx,8)
    39bb:	eb 83                	jmp    3940 <add_sample+0x20>
    39bd:	8d 76 00             	lea    0x0(%esi),%esi
    39c0:	dd d8                	fstp   %st(0)
    39c2:	83 c1 01             	add    $0x1,%ecx
    39c5:	5b                   	pop    %ebx
    39c6:	89 0d ac 74 00 00    	mov    %ecx,0x74ac
    39cc:	5e                   	pop    %esi
    39cd:	c3                   	ret    
    39ce:	66 90                	xchg   %ax,%ax

000039d0 <has_converged>:
    39d0:	8b 15 7c 74 00 00    	mov    0x747c,%edx
    39d6:	31 c0                	xor    %eax,%eax
    39d8:	39 15 ac 74 00 00    	cmp    %edx,0x74ac
    39de:	7c 1e                	jl     39fe <has_converged+0x2e>
    39e0:	d9 e8                	fld1   
    39e2:	a1 b0 74 00 00       	mov    0x74b0,%eax
    39e7:	dc 05 70 74 00 00    	faddl  0x7470
    39ed:	dc 08                	fmull  (%eax)
    39ef:	dd 44 d0 f8          	fldl   -0x8(%eax,%edx,8)
    39f3:	d9 c9                	fxch   %st(1)
    39f5:	31 c0                	xor    %eax,%eax
    39f7:	df e9                	fucomip %st(1),%st
    39f9:	dd d8                	fstp   %st(0)
    39fb:	0f 93 c0             	setae  %al
    39fe:	f3 c3                	repz ret 

00003a00 <clear>:
    3a00:	57                   	push   %edi
    3a01:	56                   	push   %esi
    3a02:	53                   	push   %ebx
    3a03:	83 ec 10             	sub    $0x10,%esp
    3a06:	8b 35 68 74 00 00    	mov    0x7468,%esi
    3a0c:	a1 b4 74 00 00       	mov    0x74b4,%eax
    3a11:	8b 1d a8 74 00 00    	mov    0x74a8,%ebx
    3a17:	8b 3d 6c 74 00 00    	mov    0x746c,%edi
    3a1d:	c1 ee 02             	shr    $0x2,%esi
    3a20:	85 c0                	test   %eax,%eax
    3a22:	74 29                	je     3a4d <clear+0x4d>
    3a24:	83 e7 fc             	and    $0xfffffffc,%edi
    3a27:	89 fa                	mov    %edi,%edx
    3a29:	01 c2                	add    %eax,%edx
    3a2b:	39 c2                	cmp    %eax,%edx
    3a2d:	76 11                	jbe    3a40 <clear+0x40>
    3a2f:	8d 0c b5 00 00 00 00 	lea    0x0(,%esi,4),%ecx
    3a36:	66 90                	xchg   %ax,%ax
    3a38:	03 18                	add    (%eax),%ebx
    3a3a:	01 c8                	add    %ecx,%eax
    3a3c:	39 c2                	cmp    %eax,%edx
    3a3e:	77 f8                	ja     3a38 <clear+0x38>
    3a40:	89 1d a8 74 00 00    	mov    %ebx,0x74a8
    3a46:	83 c4 10             	add    $0x10,%esp
    3a49:	5b                   	pop    %ebx
    3a4a:	5e                   	pop    %esi
    3a4b:	5f                   	pop    %edi
    3a4c:	c3                   	ret    
    3a4d:	89 3c 24             	mov    %edi,(%esp)
    3a50:	e8 fc ff ff ff       	call   3a51 <clear+0x51>
    3a55:	85 c0                	test   %eax,%eax
    3a57:	a3 b4 74 00 00       	mov    %eax,0x74b4
    3a5c:	75 c6                	jne    3a24 <clear+0x24>
    3a5e:	a1 00 00 00 00       	mov    0x0,%eax
    3a63:	c7 44 24 08 3e 00 00 	movl   $0x3e,0x8(%esp)
    3a6a:	00 
    3a6b:	c7 44 24 04 01 00 00 	movl   $0x1,0x4(%esp)
    3a72:	00 
    3a73:	c7 04 24 74 4d 00 00 	movl   $0x4d74,(%esp)
    3a7a:	89 44 24 0c          	mov    %eax,0xc(%esp)
    3a7e:	e8 fc ff ff ff       	call   3a7f <clear+0x7f>
    3a83:	c7 04 24 01 00 00 00 	movl   $0x1,(%esp)
    3a8a:	e8 fc ff ff ff       	call   3a8b <clear+0x8b>
    3a8f:	90                   	nop

00003a90 <fcyc>:
    3a90:	56                   	push   %esi
    3a91:	53                   	push   %ebx
    3a92:	83 ec 14             	sub    $0x14,%esp
    3a95:	a1 b0 74 00 00       	mov    0x74b0,%eax
    3a9a:	8b 5c 24 20          	mov    0x20(%esp),%ebx
    3a9e:	8b 74 24 24          	mov    0x24(%esp),%esi
    3aa2:	85 c0                	test   %eax,%eax
    3aa4:	74 08                	je     3aae <fcyc+0x1e>
    3aa6:	89 04 24             	mov    %eax,(%esp)
    3aa9:	e8 fc ff ff ff       	call   3aaa <fcyc+0x1a>
    3aae:	a1 7c 74 00 00       	mov    0x747c,%eax
    3ab3:	c7 44 24 04 08 00 00 	movl   $0x8,0x4(%esp)
    3aba:	00 
    3abb:	89 04 24             	mov    %eax,(%esp)
    3abe:	e8 fc ff ff ff       	call   3abf <fcyc+0x2f>
    3ac3:	8b 0d bc 74 00 00    	mov    0x74bc,%ecx
    3ac9:	c7 05 ac 74 00 00 00 	movl   $0x0,0x74ac
    3ad0:	00 00 00 
    3ad3:	85 c9                	test   %ecx,%ecx
    3ad5:	a3 b0 74 00 00       	mov    %eax,0x74b0
    3ada:	74 77                	je     3b53 <fcyc+0xc3>
    3adc:	eb 2f                	jmp    3b0d <fcyc+0x7d>
    3ade:	66 90                	xchg   %ax,%ax
    3ae0:	e8 eb 02 00 00       	call   3dd0 <start_comp_counter>
    3ae5:	89 34 24             	mov    %esi,(%esp)
    3ae8:	ff d3                	call   *%ebx
    3aea:	e8 11 04 00 00       	call   3f00 <get_comp_counter>
    3aef:	dd 1c 24             	fstpl  (%esp)
    3af2:	e8 29 fe ff ff       	call   3920 <add_sample>
    3af7:	e8 d4 fe ff ff       	call   39d0 <has_converged>
    3afc:	85 c0                	test   %eax,%eax
    3afe:	75 60                	jne    3b60 <fcyc+0xd0>
    3b00:	a1 78 74 00 00       	mov    0x7478,%eax
    3b05:	39 05 ac 74 00 00    	cmp    %eax,0x74ac
    3b0b:	7d 53                	jge    3b60 <fcyc+0xd0>
    3b0d:	8b 15 b8 74 00 00    	mov    0x74b8,%edx
    3b13:	85 d2                	test   %edx,%edx
    3b15:	74 c9                	je     3ae0 <fcyc+0x50>
    3b17:	e8 e4 fe ff ff       	call   3a00 <clear>
    3b1c:	eb c2                	jmp    3ae0 <fcyc+0x50>
    3b1e:	66 90                	xchg   %ax,%ax
    3b20:	e8 db fe ff ff       	call   3a00 <clear>
    3b25:	e8 26 01 00 00       	call   3c50 <start_counter>
    3b2a:	89 34 24             	mov    %esi,(%esp)
    3b2d:	ff d3                	call   *%ebx
    3b2f:	90                   	nop
    3b30:	e8 3b 01 00 00       	call   3c70 <get_counter>
    3b35:	dd 1c 24             	fstpl  (%esp)
    3b38:	e8 e3 fd ff ff       	call   3920 <add_sample>
    3b3d:	e8 8e fe ff ff       	call   39d0 <has_converged>
    3b42:	85 c0                	test   %eax,%eax
    3b44:	75 1a                	jne    3b60 <fcyc+0xd0>
    3b46:	a1 78 74 00 00       	mov    0x7478,%eax
    3b4b:	39 05 ac 74 00 00    	cmp    %eax,0x74ac
    3b51:	7d 0d                	jge    3b60 <fcyc+0xd0>
    3b53:	a1 b8 74 00 00       	mov    0x74b8,%eax
    3b58:	85 c0                	test   %eax,%eax
    3b5a:	74 c9                	je     3b25 <fcyc+0x95>
    3b5c:	eb c0                	jmp    3b1e <fcyc+0x8e>
    3b5e:	66 90                	xchg   %ax,%ax
    3b60:	a1 b0 74 00 00       	mov    0x74b0,%eax
    3b65:	dd 00                	fldl   (%eax)
    3b67:	89 04 24             	mov    %eax,(%esp)
    3b6a:	dd 5c 24 08          	fstpl  0x8(%esp)
    3b6e:	e8 fc ff ff ff       	call   3b6f <fcyc+0xdf>
    3b73:	c7 05 b0 74 00 00 00 	movl   $0x0,0x74b0
    3b7a:	00 00 00 
    3b7d:	dd 44 24 08          	fldl   0x8(%esp)
    3b81:	83 c4 14             	add    $0x14,%esp
    3b84:	5b                   	pop    %ebx
    3b85:	5e                   	pop    %esi
    3b86:	c3                   	ret    
    3b87:	89 f6                	mov    %esi,%esi
    3b89:	8d bc 27 00 00 00 00 	lea    0x0(%edi,%eiz,1),%edi

00003b90 <set_fcyc_clear_cache>:
    3b90:	8b 44 24 04          	mov    0x4(%esp),%eax
    3b94:	a3 b8 74 00 00       	mov    %eax,0x74b8
    3b99:	c3                   	ret    
    3b9a:	8d b6 00 00 00 00    	lea    0x0(%esi),%esi

00003ba0 <set_fcyc_cache_size>:
    3ba0:	83 ec 1c             	sub    $0x1c,%esp
    3ba3:	8b 44 24 20          	mov    0x20(%esp),%eax
    3ba7:	3b 05 6c 74 00 00    	cmp    0x746c,%eax
    3bad:	74 20                	je     3bcf <set_fcyc_cache_size+0x2f>
    3baf:	a3 6c 74 00 00       	mov    %eax,0x746c
    3bb4:	a1 b4 74 00 00       	mov    0x74b4,%eax
    3bb9:	85 c0                	test   %eax,%eax
    3bbb:	74 12                	je     3bcf <set_fcyc_cache_size+0x2f>
    3bbd:	89 04 24             	mov    %eax,(%esp)
    3bc0:	e8 fc ff ff ff       	call   3bc1 <set_fcyc_cache_size+0x21>
    3bc5:	c7 05 b4 74 00 00 00 	movl   $0x0,0x74b4
    3bcc:	00 00 00 
    3bcf:	83 c4 1c             	add    $0x1c,%esp
    3bd2:	c3                   	ret    
    3bd3:	8d b6 00 00 00 00    	lea    0x0(%esi),%esi
    3bd9:	8d bc 27 00 00 00 00 	lea    0x0(%edi,%eiz,1),%edi

00003be0 <set_fcyc_cache_block>:
    3be0:	8b 44 24 04          	mov    0x4(%esp),%eax
    3be4:	a3 68 74 00 00       	mov    %eax,0x7468
    3be9:	c3                   	ret    
    3bea:	8d b6 00 00 00 00    	lea    0x0(%esi),%esi

00003bf0 <set_fcyc_compensate>:
    3bf0:	8b 44 24 04          	mov    0x4(%esp),%eax
    3bf4:	a3 bc 74 00 00       	mov    %eax,0x74bc
    3bf9:	c3                   	ret    
    3bfa:	8d b6 00 00 00 00    	lea    0x0(%esi),%esi

00003c00 <set_fcyc_k>:
    3c00:	8b 44 24 04          	mov    0x4(%esp),%eax
    3c04:	a3 7c 74 00 00       	mov    %eax,0x747c
    3c09:	c3                   	ret    
    3c0a:	8d b6 00 00 00 00    	lea    0x0(%esi),%esi

00003c10 <set_fcyc_maxsamples>:
    3c10:	8b 44 24 04          	mov    0x4(%esp),%eax
    3c14:	a3 78 74 00 00       	mov    %eax,0x7478
    3c19:	c3                   	ret    
    3c1a:	8d b6 00 00 00 00    	lea    0x0(%esi),%esi

00003c20 <set_fcyc_epsilon>:
    3c20:	dd 44 24 04          	fldl   0x4(%esp)
    3c24:	dd 1d 70 74 00 00    	fstpl  0x7470
    3c2a:	c3                   	ret    
    3c2b:	66 90                	xchg   %ax,%ax
    3c2d:	66 90                	xchg   %ax,%ax
    3c2f:	90                   	nop

00003c30 <access_counter>:
    3c30:	53                   	push   %ebx
    3c31:	0f 31                	rdtsc  
    3c33:	89 d3                	mov    %edx,%ebx
    3c35:	89 c1                	mov    %eax,%ecx
    3c37:	8b 44 24 08          	mov    0x8(%esp),%eax
    3c3b:	89 18                	mov    %ebx,(%eax)
    3c3d:	8b 44 24 0c          	mov    0xc(%esp),%eax
    3c41:	89 08                	mov    %ecx,(%eax)
    3c43:	5b                   	pop    %ebx
    3c44:	c3                   	ret    
    3c45:	8d 74 26 00          	lea    0x0(%esi,%eiz,1),%esi
    3c49:	8d bc 27 00 00 00 00 	lea    0x0(%edi,%eiz,1),%edi

00003c50 <start_counter>:
    3c50:	53                   	push   %ebx
    3c51:	0f 31                	rdtsc  
    3c53:	89 d3                	mov    %edx,%ebx
    3c55:	89 c1                	mov    %eax,%ecx
    3c57:	89 1d d4 74 00 00    	mov    %ebx,0x74d4
    3c5d:	89 0d d0 74 00 00    	mov    %ecx,0x74d0
    3c63:	5b                   	pop    %ebx
    3c64:	c3                   	ret    
    3c65:	8d 74 26 00          	lea    0x0(%esi,%eiz,1),%esi
    3c69:	8d bc 27 00 00 00 00 	lea    0x0(%edi,%eiz,1),%edi

00003c70 <get_counter>:
    3c70:	53                   	push   %ebx
    3c71:	83 ec 38             	sub    $0x38,%esp
    3c74:	0f 31                	rdtsc  
    3c76:	89 d1                	mov    %edx,%ecx
    3c78:	89 c3                	mov    %eax,%ebx
    3c7a:	31 d2                	xor    %edx,%edx
    3c7c:	89 d8                	mov    %ebx,%eax
    3c7e:	2b 0d d4 74 00 00    	sub    0x74d4,%ecx
    3c84:	2b 05 d0 74 00 00    	sub    0x74d0,%eax
    3c8a:	0f 92 c2             	setb   %dl
    3c8d:	31 db                	xor    %ebx,%ebx
    3c8f:	29 d1                	sub    %edx,%ecx
    3c91:	31 d2                	xor    %edx,%edx
    3c93:	89 4c 24 28          	mov    %ecx,0x28(%esp)
    3c97:	89 5c 24 2c          	mov    %ebx,0x2c(%esp)
    3c9b:	df 6c 24 28          	fildll 0x28(%esp)
    3c9f:	d8 0d 00 4e 00 00    	fmuls  0x4e00
    3ca5:	89 44 24 28          	mov    %eax,0x28(%esp)
    3ca9:	89 54 24 2c          	mov    %edx,0x2c(%esp)
    3cad:	d8 0d 04 4e 00 00    	fmuls  0x4e04
    3cb3:	df 6c 24 28          	fildll 0x28(%esp)
    3cb7:	de c1                	faddp  %st,%st(1)
    3cb9:	d9 ee                	fldz   
    3cbb:	df e9                	fucomip %st(1),%st
    3cbd:	77 09                	ja     3cc8 <get_counter+0x58>
    3cbf:	83 c4 38             	add    $0x38,%esp
    3cc2:	5b                   	pop    %ebx
    3cc3:	c3                   	ret    
    3cc4:	8d 74 26 00          	lea    0x0(%esi,%eiz,1),%esi
    3cc8:	a1 00 00 00 00       	mov    0x0,%eax
    3ccd:	dd 54 24 0c          	fstl   0xc(%esp)
    3cd1:	c7 44 24 08 b4 4d 00 	movl   $0x4db4,0x8(%esp)
    3cd8:	00 
    3cd9:	dd 5c 24 20          	fstpl  0x20(%esp)
    3cdd:	c7 44 24 04 01 00 00 	movl   $0x1,0x4(%esp)
    3ce4:	00 
    3ce5:	89 04 24             	mov    %eax,(%esp)
    3ce8:	e8 fc ff ff ff       	call   3ce9 <get_counter+0x79>
    3ced:	dd 44 24 20          	fldl   0x20(%esp)
    3cf1:	83 c4 38             	add    $0x38,%esp
    3cf4:	5b                   	pop    %ebx
    3cf5:	c3                   	ret    
    3cf6:	8d 76 00             	lea    0x0(%esi),%esi
    3cf9:	8d bc 27 00 00 00 00 	lea    0x0(%edi,%eiz,1),%edi

00003d00 <ovhd>:
    3d00:	56                   	push   %esi
    3d01:	53                   	push   %ebx
    3d02:	83 ec 04             	sub    $0x4,%esp
    3d05:	0f 31                	rdtsc  
    3d07:	89 d6                	mov    %edx,%esi
    3d09:	89 c3                	mov    %eax,%ebx
    3d0b:	89 35 d4 74 00 00    	mov    %esi,0x74d4
    3d11:	89 1d d0 74 00 00    	mov    %ebx,0x74d0
    3d17:	e8 54 ff ff ff       	call   3c70 <get_counter>
    3d1c:	dd d8                	fstp   %st(0)
    3d1e:	89 35 d4 74 00 00    	mov    %esi,0x74d4
    3d24:	89 1d d0 74 00 00    	mov    %ebx,0x74d0
    3d2a:	83 c4 04             	add    $0x4,%esp
    3d2d:	5b                   	pop    %ebx
    3d2e:	5e                   	pop    %esi
    3d2f:	e9 3c ff ff ff       	jmp    3c70 <get_counter>
    3d34:	8d b6 00 00 00 00    	lea    0x0(%esi),%esi
    3d3a:	8d bf 00 00 00 00    	lea    0x0(%edi),%edi

00003d40 <mhz_full>:
    3d40:	56                   	push   %esi
    3d41:	53                   	push   %ebx
    3d42:	83 ec 24             	sub    $0x24,%esp
    3d45:	8b 5c 24 34          	mov    0x34(%esp),%ebx
    3d49:	0f 31                	rdtsc  
    3d4b:	89 d6                	mov    %edx,%esi
    3d4d:	89 c1                	mov    %eax,%ecx
    3d4f:	89 0d d0 74 00 00    	mov    %ecx,0x74d0
    3d55:	89 35 d4 74 00 00    	mov    %esi,0x74d4
    3d5b:	89 1c 24             	mov    %ebx,(%esp)
    3d5e:	e8 fc ff ff ff       	call   3d5f <mhz_full+0x1f>
    3d63:	e8 08 ff ff ff       	call   3c70 <get_counter>
    3d68:	8b 44 24 30          	mov    0x30(%esp),%eax
    3d6c:	89 5c 24 1c          	mov    %ebx,0x1c(%esp)
    3d70:	85 c0                	test   %eax,%eax
    3d72:	db 44 24 1c          	fildl  0x1c(%esp)
    3d76:	d8 0d 08 4e 00 00    	fmuls  0x4e08
    3d7c:	de f9                	fdivrp %st,%st(1)
    3d7e:	74 20                	je     3da0 <mhz_full+0x60>
    3d80:	dd 54 24 08          	fstl   0x8(%esp)
    3d84:	c7 44 24 04 dc 4d 00 	movl   $0x4ddc,0x4(%esp)
    3d8b:	00 
    3d8c:	dd 5c 24 10          	fstpl  0x10(%esp)
    3d90:	c7 04 24 01 00 00 00 	movl   $0x1,(%esp)
    3d97:	e8 fc ff ff ff       	call   3d98 <mhz_full+0x58>
    3d9c:	dd 44 24 10          	fldl   0x10(%esp)
    3da0:	83 c4 24             	add    $0x24,%esp
    3da3:	5b                   	pop    %ebx
    3da4:	5e                   	pop    %esi
    3da5:	c3                   	ret    
    3da6:	8d 76 00             	lea    0x0(%esi),%esi
    3da9:	8d bc 27 00 00 00 00 	lea    0x0(%edi,%eiz,1),%edi

00003db0 <mhz>:
    3db0:	83 ec 1c             	sub    $0x1c,%esp
    3db3:	8b 44 24 20          	mov    0x20(%esp),%eax
    3db7:	c7 44 24 04 02 00 00 	movl   $0x2,0x4(%esp)
    3dbe:	00 
    3dbf:	89 04 24             	mov    %eax,(%esp)
    3dc2:	e8 79 ff ff ff       	call   3d40 <mhz_full>
    3dc7:	83 c4 1c             	add    $0x1c,%esp
    3dca:	c3                   	ret    
    3dcb:	90                   	nop
    3dcc:	8d 74 26 00          	lea    0x0(%esi,%eiz,1),%esi

00003dd0 <start_comp_counter>:
    3dd0:	57                   	push   %edi
    3dd1:	56                   	push   %esi
    3dd2:	53                   	push   %ebx
    3dd3:	83 ec 30             	sub    $0x30,%esp
    3dd6:	d9 ee                	fldz   
    3dd8:	dd 05 c8 74 00 00    	fldl   0x74c8
    3dde:	8d 74 24 20          	lea    0x20(%esp),%esi
    3de2:	df e9                	fucomip %st(1),%st
    3de4:	dd d8                	fstp   %st(0)
    3de6:	7a 08                	jp     3df0 <start_comp_counter+0x20>
    3de8:	eb 36                	jmp    3e20 <start_comp_counter+0x50>
    3dea:	dd d8                	fstp   %st(0)
    3dec:	8d 74 26 00          	lea    0x0(%esi,%eiz,1),%esi
    3df0:	89 34 24             	mov    %esi,(%esp)
    3df3:	e8 fc ff ff ff       	call   3df4 <start_comp_counter+0x24>
    3df8:	8b 44 24 20          	mov    0x20(%esp),%eax
    3dfc:	a3 c0 74 00 00       	mov    %eax,0x74c0
    3e01:	0f 31                	rdtsc  
    3e03:	89 d3                	mov    %edx,%ebx
    3e05:	89 c1                	mov    %eax,%ecx
    3e07:	89 1d d4 74 00 00    	mov    %ebx,0x74d4
    3e0d:	89 0d d0 74 00 00    	mov    %ecx,0x74d0
    3e13:	83 c4 30             	add    $0x30,%esp
    3e16:	5b                   	pop    %ebx
    3e17:	5e                   	pop    %esi
    3e18:	5f                   	pop    %edi
    3e19:	c3                   	ret    
    3e1a:	8d b6 00 00 00 00    	lea    0x0(%esi),%esi
    3e20:	75 ce                	jne    3df0 <start_comp_counter+0x20>
    3e22:	89 34 24             	mov    %esi,(%esp)
    3e25:	e8 fc ff ff ff       	call   3e26 <start_comp_counter+0x56>
    3e2a:	8b 7c 24 20          	mov    0x20(%esp),%edi
    3e2e:	0f 31                	rdtsc  
    3e30:	89 d3                	mov    %edx,%ebx
    3e32:	89 c1                	mov    %eax,%ecx
    3e34:	89 1d d4 74 00 00    	mov    %ebx,0x74d4
    3e3a:	31 db                	xor    %ebx,%ebx
    3e3c:	89 0d d0 74 00 00    	mov    %ecx,0x74d0
    3e42:	e8 29 fe ff ff       	call   3c70 <get_counter>
    3e47:	dd 5c 24 08          	fstpl  0x8(%esp)
    3e4b:	eb 0c                	jmp    3e59 <start_comp_counter+0x89>
    3e4d:	8d 76 00             	lea    0x0(%esi),%esi
    3e50:	dd d8                	fstp   %st(0)
    3e52:	dd d8                	fstp   %st(0)
    3e54:	83 fb 63             	cmp    $0x63,%ebx
    3e57:	7f 97                	jg     3df0 <start_comp_counter+0x20>
    3e59:	e8 12 fe ff ff       	call   3c70 <get_counter>
    3e5e:	dd 44 24 08          	fldl   0x8(%esp)
    3e62:	d8 e9                	fsubr  %st(1),%st
    3e64:	d9 05 0c 4e 00 00    	flds   0x4e0c
    3e6a:	d9 c9                	fxch   %st(1)
    3e6c:	db e9                	fucomi %st(1),%st
    3e6e:	dd d9                	fstp   %st(1)
    3e70:	72 de                	jb     3e50 <start_comp_counter+0x80>
    3e72:	dd 5c 24 10          	fstpl  0x10(%esp)
    3e76:	89 34 24             	mov    %esi,(%esp)
    3e79:	dd 5c 24 08          	fstpl  0x8(%esp)
    3e7d:	e8 fc ff ff ff       	call   3e7e <start_comp_counter+0xae>
    3e82:	8b 44 24 20          	mov    0x20(%esp),%eax
    3e86:	39 f8                	cmp    %edi,%eax
    3e88:	dd 44 24 08          	fldl   0x8(%esp)
    3e8c:	dd 44 24 10          	fldl   0x10(%esp)
    3e90:	7e 46                	jle    3ed8 <start_comp_counter+0x108>
    3e92:	89 c2                	mov    %eax,%edx
    3e94:	29 fa                	sub    %edi,%edx
    3e96:	89 54 24 1c          	mov    %edx,0x1c(%esp)
    3e9a:	db 44 24 1c          	fildl  0x1c(%esp)
    3e9e:	de f9                	fdivrp %st,%st(1)
    3ea0:	dd 05 c8 74 00 00    	fldl   0x74c8
    3ea6:	d9 ee                	fldz   
    3ea8:	d9 c9                	fxch   %st(1)
    3eaa:	db e9                	fucomi %st(1),%st
    3eac:	dd d9                	fstp   %st(1)
    3eae:	7a 40                	jp     3ef0 <start_comp_counter+0x120>
    3eb0:	75 3e                	jne    3ef0 <start_comp_counter+0x120>
    3eb2:	dd d8                	fstp   %st(0)
    3eb4:	d9 05 10 4e 00 00    	flds   0x4e10
    3eba:	d9 c9                	fxch   %st(1)
    3ebc:	db e9                	fucomi %st(1),%st
    3ebe:	dd d9                	fstp   %st(1)
    3ec0:	76 08                	jbe    3eca <start_comp_counter+0xfa>
    3ec2:	dd 1d c8 74 00 00    	fstpl  0x74c8
    3ec8:	eb 06                	jmp    3ed0 <start_comp_counter+0x100>
    3eca:	dd d8                	fstp   %st(0)
    3ecc:	eb 02                	jmp    3ed0 <start_comp_counter+0x100>
    3ece:	dd d8                	fstp   %st(0)
    3ed0:	83 c3 01             	add    $0x1,%ebx
    3ed3:	89 c7                	mov    %eax,%edi
    3ed5:	eb 03                	jmp    3eda <start_comp_counter+0x10a>
    3ed7:	90                   	nop
    3ed8:	dd d8                	fstp   %st(0)
    3eda:	83 fb 63             	cmp    $0x63,%ebx
    3edd:	0f 8f 07 ff ff ff    	jg     3dea <start_comp_counter+0x1a>
    3ee3:	dd 5c 24 08          	fstpl  0x8(%esp)
    3ee7:	e9 6d ff ff ff       	jmp    3e59 <start_comp_counter+0x89>
    3eec:	8d 74 26 00          	lea    0x0(%esi,%eiz,1),%esi
    3ef0:	df e9                	fucomip %st(1),%st
    3ef2:	76 da                	jbe    3ece <start_comp_counter+0xfe>
    3ef4:	eb be                	jmp    3eb4 <start_comp_counter+0xe4>
    3ef6:	8d 76 00             	lea    0x0(%esi),%esi
    3ef9:	8d bc 27 00 00 00 00 	lea    0x0(%edi,%eiz,1),%edi

00003f00 <get_comp_counter>:
    3f00:	83 ec 3c             	sub    $0x3c,%esp
    3f03:	e8 68 fd ff ff       	call   3c70 <get_counter>
    3f08:	8d 44 24 20          	lea    0x20(%esp),%eax
    3f0c:	89 04 24             	mov    %eax,(%esp)
    3f0f:	dd 5c 24 10          	fstpl  0x10(%esp)
    3f13:	e8 fc ff ff ff       	call   3f14 <get_comp_counter+0x14>
    3f18:	8b 44 24 20          	mov    0x20(%esp),%eax
    3f1c:	2b 05 c0 74 00 00    	sub    0x74c0,%eax
    3f22:	89 44 24 1c          	mov    %eax,0x1c(%esp)
    3f26:	db 44 24 1c          	fildl  0x1c(%esp)
    3f2a:	dc 0d c8 74 00 00    	fmull  0x74c8
    3f30:	dd 44 24 10          	fldl   0x10(%esp)
    3f34:	83 c4 3c             	add    $0x3c,%esp
    3f37:	de e1                	fsubp  %st,%st(1)
    3f39:	c3                   	ret    
    3f3a:	66 90                	xchg   %ax,%ax
    3f3c:	66 90                	xchg   %ax,%ax
    3f3e:	66 90                	xchg   %ax,%ax

00003f40 <get_etime>:
    3f40:	83 ec 4c             	sub    $0x4c,%esp
    3f43:	8d 44 24 10          	lea    0x10(%esp),%eax
    3f47:	89 44 24 04          	mov    %eax,0x4(%esp)
    3f4b:	c7 04 24 01 00 00 00 	movl   $0x1,(%esp)
    3f52:	e8 fc ff ff ff       	call   3f53 <get_etime+0x13>
    3f57:	8d 44 24 20          	lea    0x20(%esp),%eax
    3f5b:	89 44 24 04          	mov    %eax,0x4(%esp)
    3f5f:	c7 04 24 00 00 00 00 	movl   $0x0,(%esp)
    3f66:	e8 fc ff ff ff       	call   3f67 <get_etime+0x27>
    3f6b:	8d 44 24 30          	lea    0x30(%esp),%eax
    3f6f:	89 44 24 04          	mov    %eax,0x4(%esp)
    3f73:	c7 04 24 02 00 00 00 	movl   $0x2,(%esp)
    3f7a:	e8 fc ff ff ff       	call   3f7b <get_etime+0x3b>
    3f7f:	a1 e0 74 00 00       	mov    0x74e0,%eax
    3f84:	2b 44 24 28          	sub    0x28(%esp),%eax
    3f88:	89 44 24 0c          	mov    %eax,0xc(%esp)
    3f8c:	a1 e4 74 00 00       	mov    0x74e4,%eax
    3f91:	2b 44 24 2c          	sub    0x2c(%esp),%eax
    3f95:	db 44 24 0c          	fildl  0xc(%esp)
    3f99:	89 44 24 0c          	mov    %eax,0xc(%esp)
    3f9d:	db 44 24 0c          	fildl  0xc(%esp)
    3fa1:	dc 0d 18 4e 00 00    	fmull  0x4e18
    3fa7:	83 c4 4c             	add    $0x4c,%esp
    3faa:	de c1                	faddp  %st,%st(1)
    3fac:	c3                   	ret    
    3fad:	8d 76 00             	lea    0x0(%esi),%esi

00003fb0 <ftimer_itimer>:
    3fb0:	55                   	push   %ebp
    3fb1:	57                   	push   %edi
    3fb2:	56                   	push   %esi
    3fb3:	53                   	push   %ebx
    3fb4:	31 db                	xor    %ebx,%ebx
    3fb6:	83 ec 2c             	sub    $0x2c,%esp
    3fb9:	c7 44 24 08 00 00 00 	movl   $0x0,0x8(%esp)
    3fc0:	00 
    3fc1:	8b 74 24 48          	mov    0x48(%esp),%esi
    3fc5:	c7 44 24 04 f8 74 00 	movl   $0x74f8,0x4(%esp)
    3fcc:	00 
    3fcd:	8b 6c 24 40          	mov    0x40(%esp),%ebp
    3fd1:	c7 04 24 01 00 00 00 	movl   $0x1,(%esp)
    3fd8:	8b 7c 24 44          	mov    0x44(%esp),%edi
    3fdc:	c7 05 f8 74 00 00 00 	movl   $0x0,0x74f8
    3fe3:	00 00 00 
    3fe6:	c7 05 fc 74 00 00 00 	movl   $0x0,0x74fc
    3fed:	00 00 00 
    3ff0:	c7 05 00 75 00 00 80 	movl   $0x15180,0x7500
    3ff7:	51 01 00 
    3ffa:	c7 05 04 75 00 00 00 	movl   $0x0,0x7504
    4001:	00 00 00 
    4004:	e8 fc ff ff ff       	call   4005 <ftimer_itimer+0x55>
    4009:	c7 44 24 08 00 00 00 	movl   $0x0,0x8(%esp)
    4010:	00 
    4011:	c7 44 24 04 e8 74 00 	movl   $0x74e8,0x4(%esp)
    4018:	00 
    4019:	c7 04 24 00 00 00 00 	movl   $0x0,(%esp)
    4020:	c7 05 e8 74 00 00 00 	movl   $0x0,0x74e8
    4027:	00 00 00 
    402a:	c7 05 ec 74 00 00 00 	movl   $0x0,0x74ec
    4031:	00 00 00 
    4034:	c7 05 f0 74 00 00 80 	movl   $0x15180,0x74f0
    403b:	51 01 00 
    403e:	c7 05 f4 74 00 00 00 	movl   $0x0,0x74f4
    4045:	00 00 00 
    4048:	e8 fc ff ff ff       	call   4049 <ftimer_itimer+0x99>
    404d:	c7 44 24 08 00 00 00 	movl   $0x0,0x8(%esp)
    4054:	00 
    4055:	c7 44 24 04 d8 74 00 	movl   $0x74d8,0x4(%esp)
    405c:	00 
    405d:	c7 04 24 02 00 00 00 	movl   $0x2,(%esp)
    4064:	c7 05 d8 74 00 00 00 	movl   $0x0,0x74d8
    406b:	00 00 00 
    406e:	c7 05 dc 74 00 00 00 	movl   $0x0,0x74dc
    4075:	00 00 00 
    4078:	c7 05 e0 74 00 00 80 	movl   $0x15180,0x74e0
    407f:	51 01 00 
    4082:	c7 05 e4 74 00 00 00 	movl   $0x0,0x74e4
    4089:	00 00 00 
    408c:	e8 fc ff ff ff       	call   408d <ftimer_itimer+0xdd>
    4091:	e8 aa fe ff ff       	call   3f40 <get_etime>
    4096:	85 f6                	test   %esi,%esi
    4098:	dd 5c 24 10          	fstpl  0x10(%esp)
    409c:	7e 0e                	jle    40ac <ftimer_itimer+0xfc>
    409e:	66 90                	xchg   %ax,%ax
    40a0:	83 c3 01             	add    $0x1,%ebx
    40a3:	89 3c 24             	mov    %edi,(%esp)
    40a6:	ff d5                	call   *%ebp
    40a8:	39 f3                	cmp    %esi,%ebx
    40aa:	75 f4                	jne    40a0 <ftimer_itimer+0xf0>
    40ac:	e8 8f fe ff ff       	call   3f40 <get_etime>
    40b1:	89 74 24 1c          	mov    %esi,0x1c(%esp)
    40b5:	dc 64 24 10          	fsubl  0x10(%esp)
    40b9:	db 44 24 1c          	fildl  0x1c(%esp)
    40bd:	83 c4 2c             	add    $0x2c,%esp
    40c0:	5b                   	pop    %ebx
    40c1:	de f9                	fdivrp %st,%st(1)
    40c3:	5e                   	pop    %esi
    40c4:	5f                   	pop    %edi
    40c5:	5d                   	pop    %ebp
    40c6:	c3                   	ret    
    40c7:	89 f6                	mov    %esi,%esi
    40c9:	8d bc 27 00 00 00 00 	lea    0x0(%edi,%eiz,1),%edi

000040d0 <ftimer_gettod>:
    40d0:	55                   	push   %ebp
    40d1:	57                   	push   %edi
    40d2:	56                   	push   %esi
    40d3:	53                   	push   %ebx
    40d4:	31 db                	xor    %ebx,%ebx
    40d6:	83 ec 2c             	sub    $0x2c,%esp
    40d9:	8b 74 24 48          	mov    0x48(%esp),%esi
    40dd:	8d 44 24 10          	lea    0x10(%esp),%eax
    40e1:	c7 44 24 04 00 00 00 	movl   $0x0,0x4(%esp)
    40e8:	00 
    40e9:	8b 6c 24 40          	mov    0x40(%esp),%ebp
    40ed:	89 04 24             	mov    %eax,(%esp)
    40f0:	8b 7c 24 44          	mov    0x44(%esp),%edi
    40f4:	e8 fc ff ff ff       	call   40f5 <ftimer_gettod+0x25>
    40f9:	85 f6                	test   %esi,%esi
    40fb:	7e 0f                	jle    410c <ftimer_gettod+0x3c>
    40fd:	8d 76 00             	lea    0x0(%esi),%esi
    4100:	83 c3 01             	add    $0x1,%ebx
    4103:	89 3c 24             	mov    %edi,(%esp)
    4106:	ff d5                	call   *%ebp
    4108:	39 f3                	cmp    %esi,%ebx
    410a:	75 f4                	jne    4100 <ftimer_gettod+0x30>
    410c:	8d 44 24 18          	lea    0x18(%esp),%eax
    4110:	c7 44 24 04 00 00 00 	movl   $0x0,0x4(%esp)
    4117:	00 
    4118:	89 04 24             	mov    %eax,(%esp)
    411b:	e8 fc ff ff ff       	call   411c <ftimer_gettod+0x4c>
    4120:	8b 44 24 18          	mov    0x18(%esp),%eax
    4124:	2b 44 24 10          	sub    0x10(%esp),%eax
    4128:	89 44 24 0c          	mov    %eax,0xc(%esp)
    412c:	8b 44 24 1c          	mov    0x1c(%esp),%eax
    4130:	2b 44 24 14          	sub    0x14(%esp),%eax
    4134:	db 44 24 0c          	fildl  0xc(%esp)
    4138:	d8 0d 0c 4e 00 00    	fmuls  0x4e0c
    413e:	89 44 24 0c          	mov    %eax,0xc(%esp)
    4142:	db 44 24 0c          	fildl  0xc(%esp)
    4146:	dd 05 20 4e 00 00    	fldl   0x4e20
    414c:	dc c9                	fmul   %st,%st(1)
    414e:	d9 ca                	fxch   %st(2)
    4150:	89 74 24 0c          	mov    %esi,0xc(%esp)
    4154:	de c1                	faddp  %st,%st(1)
    4156:	db 44 24 0c          	fildl  0xc(%esp)
    415a:	83 c4 2c             	add    $0x2c,%esp
    415d:	de f9                	fdivrp %st,%st(1)
    415f:	5b                   	pop    %ebx
    4160:	5e                   	pop    %esi
    4161:	5f                   	pop    %edi
    4162:	5d                   	pop    %ebp
    4163:	de c9                	fmulp  %st,%st(1)
    4165:	c3                   	ret    
    4166:	66 90                	xchg   %ax,%ax
    4168:	66 90                	xchg   %ax,%ax
    416a:	66 90                	xchg   %ax,%ax
    416c:	66 90                	xchg   %ax,%ax
    416e:	66 90                	xchg   %ax,%ax

00004170 <__libc_csu_init>:
    4170:	55                   	push   %ebp
    4171:	57                   	push   %edi
    4172:	56                   	push   %esi
    4173:	53                   	push   %ebx
    4174:	e8 27 ce ff ff       	call   fa0 <__x86.get_pc_thunk.bx>
    4179:	81 c3 df 2d 00 00    	add    $0x2ddf,%ebx
    417f:	83 ec 0c             	sub    $0xc,%esp
    4182:	8b 6c 24 28          	mov    0x28(%esp),%ebp
    4186:	8d b3 fc fe ff ff    	lea    -0x104(%ebx),%esi
    418c:	e8 87 cb ff ff       	call   d18 <_init>
    4191:	8d 83 f8 fe ff ff    	lea    -0x108(%ebx),%eax
    4197:	29 c6                	sub    %eax,%esi
    4199:	c1 fe 02             	sar    $0x2,%esi
    419c:	85 f6                	test   %esi,%esi
    419e:	74 25                	je     41c5 <__libc_csu_init+0x55>
    41a0:	31 ff                	xor    %edi,%edi
    41a2:	8d b6 00 00 00 00    	lea    0x0(%esi),%esi
    41a8:	83 ec 04             	sub    $0x4,%esp
    41ab:	55                   	push   %ebp
    41ac:	ff 74 24 2c          	pushl  0x2c(%esp)
    41b0:	ff 74 24 2c          	pushl  0x2c(%esp)
    41b4:	ff 94 bb f8 fe ff ff 	call   *-0x108(%ebx,%edi,4)
    41bb:	83 c7 01             	add    $0x1,%edi
    41be:	83 c4 10             	add    $0x10,%esp
    41c1:	39 fe                	cmp    %edi,%esi
    41c3:	75 e3                	jne    41a8 <__libc_csu_init+0x38>
    41c5:	83 c4 0c             	add    $0xc,%esp
    41c8:	5b                   	pop    %ebx
    41c9:	5e                   	pop    %esi
    41ca:	5f                   	pop    %edi
    41cb:	5d                   	pop    %ebp
    41cc:	c3                   	ret    
    41cd:	8d 76 00             	lea    0x0(%esi),%esi

000041d0 <__libc_csu_fini>:
    41d0:	f3 c3                	repz ret 
    41d2:	66 90                	xchg   %ax,%ax
    41d4:	66 90                	xchg   %ax,%ax
    41d6:	66 90                	xchg   %ax,%ax
    41d8:	66 90                	xchg   %ax,%ax
    41da:	66 90                	xchg   %ax,%ax
    41dc:	66 90                	xchg   %ax,%ax
    41de:	66 90                	xchg   %ax,%ax

000041e0 <__stack_chk_fail_local>:
    41e0:	53                   	push   %ebx
    41e1:	e8 ba cd ff ff       	call   fa0 <__x86.get_pc_thunk.bx>
    41e6:	81 c3 72 2d 00 00    	add    $0x2d72,%ebx
    41ec:	83 ec 08             	sub    $0x8,%esp
    41ef:	e8 ec cb ff ff       	call   de0 <__stack_chk_fail@plt>

Disassembly of section .fini:

000041f4 <_fini>:
    41f4:	53                   	push   %ebx
    41f5:	83 ec 08             	sub    $0x8,%esp
    41f8:	e8 a3 cd ff ff       	call   fa0 <__x86.get_pc_thunk.bx>
    41fd:	81 c3 5b 2d 00 00    	add    $0x2d5b,%ebx
    4203:	83 c4 08             	add    $0x8,%esp
    4206:	5b                   	pop    %ebx
    4207:	c3                   	ret    
